---
triple:          'arm64-apple-darwin'
binary-path:     '/Users/kiokize/Desktop/kmitl/sophomore/CG/opengl/relearn/Stable/main'
relocations:
  - { offsetInCU: 0xEAD3, offset: 0xEAD3, size: 0x8, addend: 0x0, symName: __ZNSt3__124__put_character_sequenceB7v160006IcNS_11char_traitsIcEEEERNS_13basic_ostreamIT_T0_EES7_PKS4_m, symObjAddr: 0x38BC, symBinAddr: 0x1000065C4, symSize: 0x1EC }
  - { offsetInCU: 0x135D1, offset: 0x135D1, size: 0x8, addend: 0x0, symName: __ZNSt3__1lsB7v160006INS_11char_traitsIcEEEERNS_13basic_ostreamIcT_EES6_PKc, symObjAddr: 0x104C, symBinAddr: 0x100003D54, symSize: 0x48 }
  - { offsetInCU: 0x13617, offset: 0x13617, size: 0x8, addend: 0x0, symName: __ZNSt3__14endlB7v160006IcNS_11char_traitsIcEEEERNS_13basic_ostreamIT_T0_EES7_, symObjAddr: 0x10C0, symBinAddr: 0x100003DC8, symSize: 0x58 }
  - { offsetInCU: 0x13657, offset: 0x13657, size: 0x8, addend: 0x0, symName: __ZNSt3__17getlineB7v160006IcNS_11char_traitsIcEENS_9allocatorIcEEEERNS_13basic_istreamIT_T0_EES9_RNS_12basic_stringIS6_S7_T1_EE, symObjAddr: 0x1144, symBinAddr: 0x100003E4C, symSize: 0x5C }
  - { offsetInCU: 0x136AF, offset: 0x136AF, size: 0x8, addend: 0x0, symName: __ZNSt3__1eqB7v160006IcNS_11char_traitsIcEENS_9allocatorIcEEEEbRKNS_12basic_stringIT_T0_T1_EEPKS6_, symObjAddr: 0x11CC, symBinAddr: 0x100003ED4, symSize: 0xAC }
  - { offsetInCU: 0x13716, offset: 0x13716, size: 0x8, addend: 0x0, symName: __ZNSt3__1neB7v160006IP4FaceEEbRKNS_11__wrap_iterIT_EES7_, symObjAddr: 0x15CC, symBinAddr: 0x1000042D4, symSize: 0x34 }
  - { offsetInCU: 0x13764, offset: 0x13764, size: 0x8, addend: 0x0, symName: __ZNSt3__1eqB7v160006IP4FaceEEbRKNS_11__wrap_iterIT_EES7_, symObjAddr: 0x1F10, symBinAddr: 0x100004C18, symSize: 0x48 }
  - { offsetInCU: 0x137A7, offset: 0x137A7, size: 0x8, addend: 0x0, symName: __ZNSt3__119__debug_db_insert_cB7v160006INS_12basic_stringIcNS_11char_traitsIcEENS_9allocatorIcEEEEEEvPT_, symObjAddr: 0x208C, symBinAddr: 0x100004D94, symSize: 0x10 }
  - { offsetInCU: 0x137D8, offset: 0x137D8, size: 0x8, addend: 0x0, symName: __ZNSt3__112__to_addressB7v160006IKcEEPT_S3_, symObjAddr: 0x21F8, symBinAddr: 0x100004F00, symSize: 0x14 }
  - { offsetInCU: 0x13840, offset: 0x13840, size: 0x8, addend: 0x0, symName: __ZNSt3__119__debug_db_insert_cB7v160006INS_6vectorIN3glm3vecILi3EfLNS2_9qualifierE0EEENS_9allocatorIS5_EEEEEEvPT_, symObjAddr: 0x23C8, symBinAddr: 0x1000050D0, symSize: 0x10 }
  - { offsetInCU: 0x13871, offset: 0x13871, size: 0x8, addend: 0x0, symName: __ZNSt3__118__debug_db_erase_cB7v160006INS_6vectorIN3glm3vecILi3EfLNS2_9qualifierE0EEENS_9allocatorIS5_EEEEEEvPT_, symObjAddr: 0x26A8, symBinAddr: 0x1000053B0, symSize: 0x10 }
  - { offsetInCU: 0x138A2, offset: 0x138A2, size: 0x8, addend: 0x0, symName: __ZNSt3__112__to_addressB7v160006IN3glm3vecILi3EfLNS1_9qualifierE0EEEEEPT_S6_, symObjAddr: 0x27C4, symBinAddr: 0x1000054CC, symSize: 0x14 }
  - { offsetInCU: 0x138D7, offset: 0x138D7, size: 0x8, addend: 0x0, symName: __ZNSt3__119__libcpp_deallocateB7v160006EPvmm, symObjAddr: 0x28E8, symBinAddr: 0x1000055F0, symSize: 0x60 }
  - { offsetInCU: 0x1393C, offset: 0x1393C, size: 0x8, addend: 0x0, symName: __ZNSt3__124__is_overaligned_for_newB7v160006Em, symObjAddr: 0x2948, symBinAddr: 0x100005650, symSize: 0x20 }
  - { offsetInCU: 0x1396A, offset: 0x1396A, size: 0x8, addend: 0x0, symName: __ZNSt3__127__do_deallocate_handle_sizeB7v160006IJSt11align_val_tEEEvPvmDpT_, symObjAddr: 0x2968, symBinAddr: 0x100005670, symSize: 0x30 }
  - { offsetInCU: 0x139BD, offset: 0x139BD, size: 0x8, addend: 0x0, symName: __ZNSt3__127__do_deallocate_handle_sizeB7v160006IJEEEvPvmDpT_, symObjAddr: 0x2998, symBinAddr: 0x1000056A0, symSize: 0x28 }
  - { offsetInCU: 0x139FB, offset: 0x139FB, size: 0x8, addend: 0x0, symName: __ZNSt3__124__libcpp_operator_deleteB7v160006IJPvSt11align_val_tEEEvDpT_, symObjAddr: 0x29C0, symBinAddr: 0x1000056C8, symSize: 0x2C }
  - { offsetInCU: 0x13A44, offset: 0x13A44, size: 0x8, addend: 0x0, symName: __ZNSt3__124__libcpp_operator_deleteB7v160006IJPvEEEvDpT_, symObjAddr: 0x29EC, symBinAddr: 0x1000056F4, symSize: 0x24 }
  - { offsetInCU: 0x13A79, offset: 0x13A79, size: 0x8, addend: 0x0, symName: __ZNSt3__119__debug_db_insert_cB7v160006INS_6vectorIN3glm3vecILi2EfLNS2_9qualifierE0EEENS_9allocatorIS5_EEEEEEvPT_, symObjAddr: 0x2B3C, symBinAddr: 0x100005844, symSize: 0x10 }
  - { offsetInCU: 0x13AAA, offset: 0x13AAA, size: 0x8, addend: 0x0, symName: __ZNSt3__118__debug_db_erase_cB7v160006INS_6vectorIN3glm3vecILi2EfLNS2_9qualifierE0EEENS_9allocatorIS5_EEEEEEvPT_, symObjAddr: 0x2E00, symBinAddr: 0x100005B08, symSize: 0x10 }
  - { offsetInCU: 0x13ADB, offset: 0x13ADB, size: 0x8, addend: 0x0, symName: __ZNSt3__112__to_addressB7v160006IN3glm3vecILi2EfLNS1_9qualifierE0EEEEEPT_S6_, symObjAddr: 0x2F1C, symBinAddr: 0x100005C24, symSize: 0x14 }
  - { offsetInCU: 0x13B10, offset: 0x13B10, size: 0x8, addend: 0x0, symName: __ZNSt3__119__debug_db_insert_cB7v160006INS_6vectorI4FaceNS_9allocatorIS2_EEEEEEvPT_, symObjAddr: 0x3168, symBinAddr: 0x100005E70, symSize: 0x10 }
  - { offsetInCU: 0x13B41, offset: 0x13B41, size: 0x8, addend: 0x0, symName: __ZNSt3__118__debug_db_erase_cB7v160006INS_6vectorI4FaceNS_9allocatorIS2_EEEEEEvPT_, symObjAddr: 0x3448, symBinAddr: 0x100006150, symSize: 0x10 }
  - { offsetInCU: 0x13B72, offset: 0x13B72, size: 0x8, addend: 0x0, symName: __ZNSt3__112__to_addressB7v160006I4FaceEEPT_S3_, symObjAddr: 0x3564, symBinAddr: 0x10000626C, symSize: 0x14 }
  - { offsetInCU: 0x13BA7, offset: 0x13BA7, size: 0x8, addend: 0x0, symName: __ZNSt3__116__pad_and_outputB7v160006IcNS_11char_traitsIcEEEENS_19ostreambuf_iteratorIT_T0_EES6_PKS4_S8_S8_RNS_8ios_baseES4_, symObjAddr: 0x3AF8, symBinAddr: 0x100006800, symSize: 0x240 }
  - { offsetInCU: 0x13C76, offset: 0x13C76, size: 0x8, addend: 0x0, symName: __ZNSt3__112__to_addressB7v160006IcEEPT_S2_, symObjAddr: 0x3F44, symBinAddr: 0x100006C4C, symSize: 0x14 }
  - { offsetInCU: 0x13CDE, offset: 0x13CDE, size: 0x8, addend: 0x0, symName: __ZNSt3__19use_facetB7v160006INS_5ctypeIcEEEERKT_RKNS_6localeE, symObjAddr: 0x414C, symBinAddr: 0x100006E54, symSize: 0x2C }
  - { offsetInCU: 0x141AD, offset: 0x141AD, size: 0x8, addend: 0x0, symName: __ZNSt3__118__constexpr_strlenB7v160006EPKc, symObjAddr: 0x41B0, symBinAddr: 0x100006EB8, symSize: 0x24 }
  - { offsetInCU: 0x141D9, offset: 0x141D9, size: 0x8, addend: 0x0, symName: __ZNSt3__17getlineB7v160006IcNS_11char_traitsIcEENS_9allocatorIcEEEERNS_13basic_istreamIT_T0_EES9_RNS_12basic_stringIS6_S7_T1_EES6_, symObjAddr: 0x41D4, symBinAddr: 0x100006EDC, symSize: 0x238 }
  - { offsetInCU: 0x14297, offset: 0x14297, size: 0x8, addend: 0x0, symName: __ZNSt3__125__debug_db_invalidate_allB7v160006INS_12basic_stringIcNS_11char_traitsIcEENS_9allocatorIcEEEEEEvPT_, symObjAddr: 0x46F0, symBinAddr: 0x1000073F8, symSize: 0x10 }
  - { offsetInCU: 0x144B4, offset: 0x144B4, size: 0x8, addend: 0x0, symName: __ZNSt3__13maxB7v160006ImEERKT_S3_S3_, symObjAddr: 0x4F40, symBinAddr: 0x100007C48, symSize: 0x2C }
  - { offsetInCU: 0x144F7, offset: 0x144F7, size: 0x8, addend: 0x0, symName: __ZNSt3__13minB7v160006ImEERKT_S3_S3_, symObjAddr: 0x4F6C, symBinAddr: 0x100007C74, symSize: 0x2C }
  - { offsetInCU: 0x14724, offset: 0x14724, size: 0x8, addend: 0x0, symName: __ZNSt3__13minB7v160006ImNS_6__lessImmEEEERKT_S5_S5_T0_, symObjAddr: 0x4FF8, symBinAddr: 0x100007D00, symSize: 0x54 }
  - { offsetInCU: 0x147B9, offset: 0x147B9, size: 0x8, addend: 0x0, symName: __ZNSt3__120__throw_length_errorB7v160006EPKc, symObjAddr: 0x50D8, symBinAddr: 0x100007DE0, symSize: 0x64 }
  - { offsetInCU: 0x147E1, offset: 0x147E1, size: 0x8, addend: 0x0, symName: __ZNSt3__13maxB7v160006ImNS_6__lessImmEEEERKT_S5_S5_T0_, symObjAddr: 0x51BC, symBinAddr: 0x100007EC4, symSize: 0x54 }
  - { offsetInCU: 0x1483B, offset: 0x1483B, size: 0x8, addend: 0x0, symName: __ZNSt3__119__allocate_at_leastB7v160006INS_9allocatorIN3glm3vecILi3EfLNS2_9qualifierE0EEEEEEENS_19__allocation_resultINS_16allocator_traitsIT_E7pointerEEERS9_m, symObjAddr: 0x532C, symBinAddr: 0x100008034, symSize: 0x40 }
  - { offsetInCU: 0x1487E, offset: 0x1487E, size: 0x8, addend: 0x0, symName: __ZNSt3__117__libcpp_allocateB7v160006Emm, symObjAddr: 0x54B4, symBinAddr: 0x1000081BC, symSize: 0x60 }
  - { offsetInCU: 0x148D8, offset: 0x148D8, size: 0x8, addend: 0x0, symName: __ZNSt3__121__libcpp_operator_newB7v160006IJmSt11align_val_tEEEPvDpT_, symObjAddr: 0x5514, symBinAddr: 0x10000821C, symSize: 0x2C }
  - { offsetInCU: 0x14925, offset: 0x14925, size: 0x8, addend: 0x0, symName: __ZNSt3__121__libcpp_operator_newB7v160006IJmEEEPvDpT_, symObjAddr: 0x5540, symBinAddr: 0x100008248, symSize: 0x24 }
  - { offsetInCU: 0x1495E, offset: 0x1495E, size: 0x8, addend: 0x0, symName: __ZNSt3__142__uninitialized_allocator_move_if_noexceptB7v160006INS_9allocatorIN3glm3vecILi3EfLNS2_9qualifierE0EEEEENS_16reverse_iteratorIPS5_EES9_S5_vEET1_RT_T0_SD_SA_, symObjAddr: 0x55C8, symBinAddr: 0x1000082D0, symSize: 0x78 }
  - { offsetInCU: 0x149DB, offset: 0x149DB, size: 0x8, addend: 0x0, symName: __ZNSt3__14swapB7v160006IPN3glm3vecILi3EfLNS1_9qualifierE0EEEEENS_9enable_ifIXaasr21is_move_constructibleIT_EE5valuesr18is_move_assignableIS7_EE5valueEvE4typeERS7_SA_, symObjAddr: 0x568C, symBinAddr: 0x100008394, symSize: 0x3C }
  - { offsetInCU: 0x14A2C, offset: 0x14A2C, size: 0x8, addend: 0x0, symName: __ZNSt3__125__debug_db_invalidate_allB7v160006INS_6vectorIN3glm3vecILi3EfLNS2_9qualifierE0EEENS_9allocatorIS5_EEEEEEvPT_, symObjAddr: 0x5790, symBinAddr: 0x100008498, symSize: 0x10 }
  - { offsetInCU: 0x14A5D, offset: 0x14A5D, size: 0x8, addend: 0x0, symName: __ZNSt3__14moveB7v160006INS_16reverse_iteratorIPN3glm3vecILi3EfLNS2_9qualifierE0EEEEES7_EET0_T_S9_S8_, symObjAddr: 0x57A0, symBinAddr: 0x1000084A8, symSize: 0x78 }
  - { offsetInCU: 0x14AB7, offset: 0x14AB7, size: 0x8, addend: 0x0, symName: __ZNSt3__16__moveB7v160006INS_17_ClassicAlgPolicyENS_16reverse_iteratorIPN3glm3vecILi3EfLNS3_9qualifierE0EEEEES8_S8_EENS_4pairIT0_T2_EESA_T1_SB_, symObjAddr: 0x5818, symBinAddr: 0x100008520, symSize: 0x64 }
  - { offsetInCU: 0x14B23, offset: 0x14B23, size: 0x8, addend: 0x0, symName: __ZNSt3__123__dispatch_copy_or_moveB7v160006INS_17_ClassicAlgPolicyENS_11__move_loopIS1_EENS_14__move_trivialENS_16reverse_iteratorIPN3glm3vecILi3EfLNS6_9qualifierE0EEEEESB_SB_EENS_4pairIT2_T4_EESD_T3_SE_, symObjAddr: 0x587C, symBinAddr: 0x100008584, symSize: 0x64 }
  - { offsetInCU: 0x14BA1, offset: 0x14BA1, size: 0x8, addend: 0x0, symName: __ZNSt3__121__unwrap_and_dispatchB7v160006INS_10__overloadINS_11__move_loopINS_17_ClassicAlgPolicyEEENS_14__move_trivialEEENS_16reverse_iteratorIPN3glm3vecILi3EfLNS8_9qualifierE0EEEEESD_SD_Li0EEENS_4pairIT0_T2_EESF_T1_SG_, symObjAddr: 0x58E0, symBinAddr: 0x1000085E8, symSize: 0x12C }
  - { offsetInCU: 0x14C31, offset: 0x14C31, size: 0x8, addend: 0x0, symName: __ZNSt3__114__unwrap_rangeB7v160006INS_16reverse_iteratorIPN3glm3vecILi3EfLNS2_9qualifierE0EEEEES7_EENS_4pairIT0_S9_EET_SB_, symObjAddr: 0x5A0C, symBinAddr: 0x100008714, symSize: 0x84 }
  - { offsetInCU: 0x14E69, offset: 0x14E69, size: 0x8, addend: 0x0, symName: __ZNSt3__113__unwrap_iterB7v160006INS_16reverse_iteratorIPN3glm3vecILi3EfLNS2_9qualifierE0EEEEENS_18__unwrap_iter_implIS7_Lb0EEELi0EEEDTclsrT0_8__unwrapclsr3stdE7declvalIT_EEEESB_, symObjAddr: 0x5B38, symBinAddr: 0x100008840, symSize: 0x44 }
  - { offsetInCU: 0x14EAD, offset: 0x14EAD, size: 0x8, addend: 0x0, symName: __ZNSt3__19make_pairB7v160006INS_16reverse_iteratorIPN3glm3vecILi3EfLNS2_9qualifierE0EEEEES7_EENS_4pairINS_18__unwrap_ref_decayIT_E4typeENS9_IT0_E4typeEEEOSA_OSD_, symObjAddr: 0x5B7C, symBinAddr: 0x100008884, symSize: 0x38 }
  - { offsetInCU: 0x14EFC, offset: 0x14EFC, size: 0x8, addend: 0x0, symName: __ZNSt3__114__rewrap_rangeB7v160006INS_16reverse_iteratorIPN3glm3vecILi3EfLNS2_9qualifierE0EEEEES7_EET_S8_T0_, symObjAddr: 0x5BB4, symBinAddr: 0x1000088BC, symSize: 0x5C }
  - { offsetInCU: 0x14F48, offset: 0x14F48, size: 0x8, addend: 0x0, symName: __ZNSt3__113__rewrap_iterB7v160006INS_16reverse_iteratorIPN3glm3vecILi3EfLNS2_9qualifierE0EEEEES7_NS_18__unwrap_iter_implIS7_Lb0EEEEET_SA_T0_, symObjAddr: 0x5C10, symBinAddr: 0x100008918, symSize: 0x74 }
  - { offsetInCU: 0x14F9D, offset: 0x14F9D, size: 0x8, addend: 0x0, symName: __ZNSt3__1neB7v160006IPN3glm3vecILi3EfLNS1_9qualifierE0EEES5_EEbRKNS_16reverse_iteratorIT_EERKNS6_IT0_EE, symObjAddr: 0x5C84, symBinAddr: 0x10000898C, symSize: 0x48 }
  - { offsetInCU: 0x15134, offset: 0x15134, size: 0x8, addend: 0x0, symName: __ZNSt3__119__allocate_at_leastB7v160006INS_9allocatorIN3glm3vecILi2EfLNS2_9qualifierE0EEEEEEENS_19__allocation_resultINS_16allocator_traitsIT_E7pointerEEERS9_m, symObjAddr: 0x6764, symBinAddr: 0x10000946C, symSize: 0x40 }
  - { offsetInCU: 0x15177, offset: 0x15177, size: 0x8, addend: 0x0, symName: __ZNSt3__142__uninitialized_allocator_move_if_noexceptB7v160006INS_9allocatorIN3glm3vecILi2EfLNS2_9qualifierE0EEEEENS_16reverse_iteratorIPS5_EES9_S5_vEET1_RT_T0_SD_SA_, symObjAddr: 0x6918, symBinAddr: 0x100009620, symSize: 0x78 }
  - { offsetInCU: 0x151F4, offset: 0x151F4, size: 0x8, addend: 0x0, symName: __ZNSt3__14swapB7v160006IPN3glm3vecILi2EfLNS1_9qualifierE0EEEEENS_9enable_ifIXaasr21is_move_constructibleIT_EE5valuesr18is_move_assignableIS7_EE5valueEvE4typeERS7_SA_, symObjAddr: 0x69DC, symBinAddr: 0x1000096E4, symSize: 0x3C }
  - { offsetInCU: 0x15245, offset: 0x15245, size: 0x8, addend: 0x0, symName: __ZNSt3__125__debug_db_invalidate_allB7v160006INS_6vectorIN3glm3vecILi2EfLNS2_9qualifierE0EEENS_9allocatorIS5_EEEEEEvPT_, symObjAddr: 0x6AC4, symBinAddr: 0x1000097CC, symSize: 0x10 }
  - { offsetInCU: 0x15276, offset: 0x15276, size: 0x8, addend: 0x0, symName: __ZNSt3__14moveB7v160006INS_16reverse_iteratorIPN3glm3vecILi2EfLNS2_9qualifierE0EEEEES7_EET0_T_S9_S8_, symObjAddr: 0x6AD4, symBinAddr: 0x1000097DC, symSize: 0x78 }
  - { offsetInCU: 0x152D0, offset: 0x152D0, size: 0x8, addend: 0x0, symName: __ZNSt3__16__moveB7v160006INS_17_ClassicAlgPolicyENS_16reverse_iteratorIPN3glm3vecILi2EfLNS3_9qualifierE0EEEEES8_S8_EENS_4pairIT0_T2_EESA_T1_SB_, symObjAddr: 0x6B4C, symBinAddr: 0x100009854, symSize: 0x64 }
  - { offsetInCU: 0x1533C, offset: 0x1533C, size: 0x8, addend: 0x0, symName: __ZNSt3__123__dispatch_copy_or_moveB7v160006INS_17_ClassicAlgPolicyENS_11__move_loopIS1_EENS_14__move_trivialENS_16reverse_iteratorIPN3glm3vecILi2EfLNS6_9qualifierE0EEEEESB_SB_EENS_4pairIT2_T4_EESD_T3_SE_, symObjAddr: 0x6BB0, symBinAddr: 0x1000098B8, symSize: 0x64 }
  - { offsetInCU: 0x153BA, offset: 0x153BA, size: 0x8, addend: 0x0, symName: __ZNSt3__121__unwrap_and_dispatchB7v160006INS_10__overloadINS_11__move_loopINS_17_ClassicAlgPolicyEEENS_14__move_trivialEEENS_16reverse_iteratorIPN3glm3vecILi2EfLNS8_9qualifierE0EEEEESD_SD_Li0EEENS_4pairIT0_T2_EESF_T1_SG_, symObjAddr: 0x6C14, symBinAddr: 0x10000991C, symSize: 0x12C }
  - { offsetInCU: 0x1544A, offset: 0x1544A, size: 0x8, addend: 0x0, symName: __ZNSt3__114__unwrap_rangeB7v160006INS_16reverse_iteratorIPN3glm3vecILi2EfLNS2_9qualifierE0EEEEES7_EENS_4pairIT0_S9_EET_SB_, symObjAddr: 0x6D40, symBinAddr: 0x100009A48, symSize: 0x84 }
  - { offsetInCU: 0x1556A, offset: 0x1556A, size: 0x8, addend: 0x0, symName: __ZNSt3__113__unwrap_iterB7v160006INS_16reverse_iteratorIPN3glm3vecILi2EfLNS2_9qualifierE0EEEEENS_18__unwrap_iter_implIS7_Lb0EEELi0EEEDTclsrT0_8__unwrapclsr3stdE7declvalIT_EEEESB_, symObjAddr: 0x6E64, symBinAddr: 0x100009B6C, symSize: 0x44 }
  - { offsetInCU: 0x155AE, offset: 0x155AE, size: 0x8, addend: 0x0, symName: __ZNSt3__19make_pairB7v160006INS_16reverse_iteratorIPN3glm3vecILi2EfLNS2_9qualifierE0EEEEES7_EENS_4pairINS_18__unwrap_ref_decayIT_E4typeENS9_IT0_E4typeEEEOSA_OSD_, symObjAddr: 0x6EA8, symBinAddr: 0x100009BB0, symSize: 0x38 }
  - { offsetInCU: 0x155FD, offset: 0x155FD, size: 0x8, addend: 0x0, symName: __ZNSt3__114__rewrap_rangeB7v160006INS_16reverse_iteratorIPN3glm3vecILi2EfLNS2_9qualifierE0EEEEES7_EET_S8_T0_, symObjAddr: 0x6EE0, symBinAddr: 0x100009BE8, symSize: 0x5C }
  - { offsetInCU: 0x15649, offset: 0x15649, size: 0x8, addend: 0x0, symName: __ZNSt3__113__rewrap_iterB7v160006INS_16reverse_iteratorIPN3glm3vecILi2EfLNS2_9qualifierE0EEEEES7_NS_18__unwrap_iter_implIS7_Lb0EEEEET_SA_T0_, symObjAddr: 0x6F3C, symBinAddr: 0x100009C44, symSize: 0x74 }
  - { offsetInCU: 0x1569E, offset: 0x1569E, size: 0x8, addend: 0x0, symName: __ZNSt3__1neB7v160006IPN3glm3vecILi2EfLNS1_9qualifierE0EEES5_EEbRKNS_16reverse_iteratorIT_EERKNS6_IT0_EE, symObjAddr: 0x6FB0, symBinAddr: 0x100009CB8, symSize: 0x48 }
  - { offsetInCU: 0x15756, offset: 0x15756, size: 0x8, addend: 0x0, symName: __ZNSt3__119__allocate_at_leastB7v160006INS_9allocatorI4FaceEEEENS_19__allocation_resultINS_16allocator_traitsIT_E7pointerEEERS6_m, symObjAddr: 0x7ABC, symBinAddr: 0x10000A7C4, symSize: 0x40 }
  - { offsetInCU: 0x15799, offset: 0x15799, size: 0x8, addend: 0x0, symName: __ZNSt3__142__uninitialized_allocator_move_if_noexceptB7v160006INS_9allocatorI4FaceEENS_16reverse_iteratorIPS2_EES6_S2_vEET1_RT_T0_SA_S7_, symObjAddr: 0x7C74, symBinAddr: 0x10000A97C, symSize: 0x78 }
  - { offsetInCU: 0x15816, offset: 0x15816, size: 0x8, addend: 0x0, symName: __ZNSt3__14swapB7v160006IP4FaceEENS_9enable_ifIXaasr21is_move_constructibleIT_EE5valuesr18is_move_assignableIS4_EE5valueEvE4typeERS4_S7_, symObjAddr: 0x7D38, symBinAddr: 0x10000AA40, symSize: 0x3C }
  - { offsetInCU: 0x15867, offset: 0x15867, size: 0x8, addend: 0x0, symName: __ZNSt3__125__debug_db_invalidate_allB7v160006INS_6vectorI4FaceNS_9allocatorIS2_EEEEEEvPT_, symObjAddr: 0x7E3C, symBinAddr: 0x10000AB44, symSize: 0x10 }
  - { offsetInCU: 0x15898, offset: 0x15898, size: 0x8, addend: 0x0, symName: __ZNSt3__14moveB7v160006INS_16reverse_iteratorIP4FaceEES4_EET0_T_S6_S5_, symObjAddr: 0x7E4C, symBinAddr: 0x10000AB54, symSize: 0x78 }
  - { offsetInCU: 0x158F2, offset: 0x158F2, size: 0x8, addend: 0x0, symName: __ZNSt3__16__moveB7v160006INS_17_ClassicAlgPolicyENS_16reverse_iteratorIP4FaceEES5_S5_EENS_4pairIT0_T2_EES7_T1_S8_, symObjAddr: 0x7EC4, symBinAddr: 0x10000ABCC, symSize: 0x64 }
  - { offsetInCU: 0x1595E, offset: 0x1595E, size: 0x8, addend: 0x0, symName: __ZNSt3__123__dispatch_copy_or_moveB7v160006INS_17_ClassicAlgPolicyENS_11__move_loopIS1_EENS_14__move_trivialENS_16reverse_iteratorIP4FaceEES8_S8_EENS_4pairIT2_T4_EESA_T3_SB_, symObjAddr: 0x7F28, symBinAddr: 0x10000AC30, symSize: 0x64 }
  - { offsetInCU: 0x159DC, offset: 0x159DC, size: 0x8, addend: 0x0, symName: __ZNSt3__121__unwrap_and_dispatchB7v160006INS_10__overloadINS_11__move_loopINS_17_ClassicAlgPolicyEEENS_14__move_trivialEEENS_16reverse_iteratorIP4FaceEESA_SA_Li0EEENS_4pairIT0_T2_EESC_T1_SD_, symObjAddr: 0x7F8C, symBinAddr: 0x10000AC94, symSize: 0x12C }
  - { offsetInCU: 0x15A6C, offset: 0x15A6C, size: 0x8, addend: 0x0, symName: __ZNSt3__114__unwrap_rangeB7v160006INS_16reverse_iteratorIP4FaceEES4_EENS_4pairIT0_S6_EET_S8_, symObjAddr: 0x80B8, symBinAddr: 0x10000ADC0, symSize: 0x84 }
  - { offsetInCU: 0x15B8C, offset: 0x15B8C, size: 0x8, addend: 0x0, symName: __ZNSt3__113__unwrap_iterB7v160006INS_16reverse_iteratorIP4FaceEENS_18__unwrap_iter_implIS4_Lb0EEELi0EEEDTclsrT0_8__unwrapclsr3stdE7declvalIT_EEEES8_, symObjAddr: 0x81D8, symBinAddr: 0x10000AEE0, symSize: 0x44 }
  - { offsetInCU: 0x15BD0, offset: 0x15BD0, size: 0x8, addend: 0x0, symName: __ZNSt3__19make_pairB7v160006INS_16reverse_iteratorIP4FaceEES4_EENS_4pairINS_18__unwrap_ref_decayIT_E4typeENS6_IT0_E4typeEEEOS7_OSA_, symObjAddr: 0x821C, symBinAddr: 0x10000AF24, symSize: 0x38 }
  - { offsetInCU: 0x15C1F, offset: 0x15C1F, size: 0x8, addend: 0x0, symName: __ZNSt3__114__rewrap_rangeB7v160006INS_16reverse_iteratorIP4FaceEES4_EET_S5_T0_, symObjAddr: 0x8254, symBinAddr: 0x10000AF5C, symSize: 0x5C }
  - { offsetInCU: 0x15C6B, offset: 0x15C6B, size: 0x8, addend: 0x0, symName: __ZNSt3__113__rewrap_iterB7v160006INS_16reverse_iteratorIP4FaceEES4_NS_18__unwrap_iter_implIS4_Lb0EEEEET_S7_T0_, symObjAddr: 0x82B0, symBinAddr: 0x10000AFB8, symSize: 0x74 }
  - { offsetInCU: 0x15CC0, offset: 0x15CC0, size: 0x8, addend: 0x0, symName: __ZNSt3__1neB7v160006IP4FaceS2_EEbRKNS_16reverse_iteratorIT_EERKNS3_IT0_EE, symObjAddr: 0x8324, symBinAddr: 0x10000B02C, symSize: 0x48 }
  - { offsetInCU: 0x15D78, offset: 0x15D78, size: 0x8, addend: 0x0, symName: __ZNSt3__119__debug_db_insert_cB7v160006INS_6vectorIjNS_9allocatorIjEEEEEEvPT_, symObjAddr: 0x8748, symBinAddr: 0x10000B450, symSize: 0x10 }
  - { offsetInCU: 0x15DA9, offset: 0x15DA9, size: 0x8, addend: 0x0, symName: __ZNSt3__118__debug_db_erase_cB7v160006INS_6vectorIjNS_9allocatorIjEEEEEEvPT_, symObjAddr: 0x8A0C, symBinAddr: 0x10000B714, symSize: 0x10 }
  - { offsetInCU: 0x15DDA, offset: 0x15DDA, size: 0x8, addend: 0x0, symName: __ZNSt3__112__to_addressB7v160006IjEEPT_S2_, symObjAddr: 0x8B28, symBinAddr: 0x10000B830, symSize: 0x14 }
  - { offsetInCU: 0x15E0F, offset: 0x15E0F, size: 0x8, addend: 0x0, symName: __ZNSt3__119__allocate_at_leastB7v160006INS_9allocatorIjEEEENS_19__allocation_resultINS_16allocator_traitsIT_E7pointerEEERS5_m, symObjAddr: 0x94C4, symBinAddr: 0x10000C1CC, symSize: 0x40 }
  - { offsetInCU: 0x15E52, offset: 0x15E52, size: 0x8, addend: 0x0, symName: __ZNSt3__142__uninitialized_allocator_move_if_noexceptB7v160006INS_9allocatorIjEENS_16reverse_iteratorIPjEES5_jvEET1_RT_T0_S9_S6_, symObjAddr: 0x9678, symBinAddr: 0x10000C380, symSize: 0x78 }
  - { offsetInCU: 0x15ECF, offset: 0x15ECF, size: 0x8, addend: 0x0, symName: __ZNSt3__14swapB7v160006IPjEENS_9enable_ifIXaasr21is_move_constructibleIT_EE5valuesr18is_move_assignableIS3_EE5valueEvE4typeERS3_S6_, symObjAddr: 0x973C, symBinAddr: 0x10000C444, symSize: 0x3C }
  - { offsetInCU: 0x15F20, offset: 0x15F20, size: 0x8, addend: 0x0, symName: __ZNSt3__125__debug_db_invalidate_allB7v160006INS_6vectorIjNS_9allocatorIjEEEEEEvPT_, symObjAddr: 0x9824, symBinAddr: 0x10000C52C, symSize: 0x10 }
  - { offsetInCU: 0x15F51, offset: 0x15F51, size: 0x8, addend: 0x0, symName: __ZNSt3__14moveB7v160006INS_16reverse_iteratorIPjEES3_EET0_T_S5_S4_, symObjAddr: 0x9834, symBinAddr: 0x10000C53C, symSize: 0x78 }
  - { offsetInCU: 0x15FAB, offset: 0x15FAB, size: 0x8, addend: 0x0, symName: __ZNSt3__16__moveB7v160006INS_17_ClassicAlgPolicyENS_16reverse_iteratorIPjEES4_S4_EENS_4pairIT0_T2_EES6_T1_S7_, symObjAddr: 0x98AC, symBinAddr: 0x10000C5B4, symSize: 0x64 }
  - { offsetInCU: 0x16017, offset: 0x16017, size: 0x8, addend: 0x0, symName: __ZNSt3__123__dispatch_copy_or_moveB7v160006INS_17_ClassicAlgPolicyENS_11__move_loopIS1_EENS_14__move_trivialENS_16reverse_iteratorIPjEES7_S7_EENS_4pairIT2_T4_EES9_T3_SA_, symObjAddr: 0x9910, symBinAddr: 0x10000C618, symSize: 0x64 }
  - { offsetInCU: 0x16095, offset: 0x16095, size: 0x8, addend: 0x0, symName: __ZNSt3__121__unwrap_and_dispatchB7v160006INS_10__overloadINS_11__move_loopINS_17_ClassicAlgPolicyEEENS_14__move_trivialEEENS_16reverse_iteratorIPjEES9_S9_Li0EEENS_4pairIT0_T2_EESB_T1_SC_, symObjAddr: 0x9974, symBinAddr: 0x10000C67C, symSize: 0x12C }
  - { offsetInCU: 0x16125, offset: 0x16125, size: 0x8, addend: 0x0, symName: __ZNSt3__114__unwrap_rangeB7v160006INS_16reverse_iteratorIPjEES3_EENS_4pairIT0_S5_EET_S7_, symObjAddr: 0x9AA0, symBinAddr: 0x10000C7A8, symSize: 0x84 }
  - { offsetInCU: 0x16245, offset: 0x16245, size: 0x8, addend: 0x0, symName: __ZNSt3__113__unwrap_iterB7v160006INS_16reverse_iteratorIPjEENS_18__unwrap_iter_implIS3_Lb0EEELi0EEEDTclsrT0_8__unwrapclsr3stdE7declvalIT_EEEES7_, symObjAddr: 0x9BC4, symBinAddr: 0x10000C8CC, symSize: 0x44 }
  - { offsetInCU: 0x16289, offset: 0x16289, size: 0x8, addend: 0x0, symName: __ZNSt3__19make_pairB7v160006INS_16reverse_iteratorIPjEES3_EENS_4pairINS_18__unwrap_ref_decayIT_E4typeENS5_IT0_E4typeEEEOS6_OS9_, symObjAddr: 0x9C08, symBinAddr: 0x10000C910, symSize: 0x38 }
  - { offsetInCU: 0x162D8, offset: 0x162D8, size: 0x8, addend: 0x0, symName: __ZNSt3__114__rewrap_rangeB7v160006INS_16reverse_iteratorIPjEES3_EET_S4_T0_, symObjAddr: 0x9C40, symBinAddr: 0x10000C948, symSize: 0x5C }
  - { offsetInCU: 0x16324, offset: 0x16324, size: 0x8, addend: 0x0, symName: __ZNSt3__113__rewrap_iterB7v160006INS_16reverse_iteratorIPjEES3_NS_18__unwrap_iter_implIS3_Lb0EEEEET_S6_T0_, symObjAddr: 0x9C9C, symBinAddr: 0x10000C9A4, symSize: 0x74 }
  - { offsetInCU: 0x16379, offset: 0x16379, size: 0x8, addend: 0x0, symName: __ZNSt3__1neB7v160006IPjS1_EEbRKNS_16reverse_iteratorIT_EERKNS2_IT0_EE, symObjAddr: 0x9D10, symBinAddr: 0x10000CA18, symSize: 0x48 }
  - { offsetInCU: 0x16944, offset: 0x16944, size: 0x8, addend: 0x0, symName: __ZSt28__throw_bad_array_new_lengthB7v160006v, symObjAddr: 0x5480, symBinAddr: 0x100008188, symSize: 0x34 }
  - { offsetInCU: 0x176F9, offset: 0x176F9, size: 0x8, addend: 0x0, symName: __ZNSt3__16vectorIN3glm3vecILi3EfLNS1_9qualifierE0EEENS_9allocatorIS4_EEE26__swap_out_circular_bufferERNS_14__split_bufferIS4_RS6_EE, symObjAddr: 0x4D80, symBinAddr: 0x100007A88, symSize: 0x118 }
  - { offsetInCU: 0x17750, offset: 0x17750, size: 0x8, addend: 0x0, symName: __ZNSt3__16vectorIN3glm3vecILi2EfLNS1_9qualifierE0EEENS_9allocatorIS4_EEE26__swap_out_circular_bufferERNS_14__split_bufferIS4_RS6_EE, symObjAddr: 0x63FC, symBinAddr: 0x100009104, symSize: 0x118 }
  - { offsetInCU: 0x177A7, offset: 0x177A7, size: 0x8, addend: 0x0, symName: __ZNSt3__16vectorI4FaceNS_9allocatorIS1_EEE26__swap_out_circular_bufferERNS_14__split_bufferIS1_RS3_EE, symObjAddr: 0x773C, symBinAddr: 0x10000A444, symSize: 0x118 }
  - { offsetInCU: 0x17974, offset: 0x17974, size: 0x8, addend: 0x0, symName: __ZNSt3__16vectorIjNS_9allocatorIjEEE26__swap_out_circular_bufferERNS_14__split_bufferIjRS2_EE, symObjAddr: 0x915C, symBinAddr: 0x10000BE64, symSize: 0x118 }
  - { offsetInCU: 0x19C86, offset: 0x19C86, size: 0x8, addend: 0x0, symName: __ZN4MeshC2Ev, symObjAddr: 0x0, symBinAddr: 0x100002D08, symSize: 0x30 }
  - { offsetInCU: 0x19CB2, offset: 0x19CB2, size: 0x8, addend: 0x0, symName: __ZN4MeshC1Ev, symObjAddr: 0x30, symBinAddr: 0x100002D38, symSize: 0x2C }
  - { offsetInCU: 0x19CDE, offset: 0x19CDE, size: 0x8, addend: 0x0, symName: __ZN4MeshD2Ev, symObjAddr: 0x5C, symBinAddr: 0x100002D64, symSize: 0x34 }
  - { offsetInCU: 0x19D0A, offset: 0x19D0A, size: 0x8, addend: 0x0, symName: __ZN4Mesh9ClearMeshEv, symObjAddr: 0x90, symBinAddr: 0x100002D98, symSize: 0x160 }
  - { offsetInCU: 0x19D32, offset: 0x19D32, size: 0x8, addend: 0x0, symName: __ZN4MeshD1Ev, symObjAddr: 0x1FC, symBinAddr: 0x100002F04, symSize: 0x2C }
  - { offsetInCU: 0x19D5E, offset: 0x19D5E, size: 0x8, addend: 0x0, symName: __ZN4Mesh10CreateMeshEPfPjjj, symObjAddr: 0x228, symBinAddr: 0x100002F30, symSize: 0x210 }
  - { offsetInCU: 0x19DCC, offset: 0x19DCC, size: 0x8, addend: 0x0, symName: __ZN4Mesh10RenderMeshEv, symObjAddr: 0x438, symBinAddr: 0x100003140, symSize: 0xA0 }
  - { offsetInCU: 0x19DF4, offset: 0x19DF4, size: 0x8, addend: 0x0, symName: __ZN4Mesh17CreateMeshFromOBJEPKc, symObjAddr: 0x4D8, symBinAddr: 0x1000031E0, symSize: 0x958 }
  - { offsetInCU: 0x19F80, offset: 0x19F80, size: 0x8, addend: 0x0, symName: __ZNSt3__16vectorIN3glm3vecILi3EfLNS1_9qualifierE0EEENS_9allocatorIS4_EEEC1B7v160006Ev, symObjAddr: 0xE30, symBinAddr: 0x100003B38, symSize: 0x2C }
  - { offsetInCU: 0x19FAA, offset: 0x19FAA, size: 0x8, addend: 0x0, symName: __ZNSt3__16vectorIN3glm3vecILi2EfLNS1_9qualifierE0EEENS_9allocatorIS4_EEEC1B7v160006Ev, symObjAddr: 0xE5C, symBinAddr: 0x100003B64, symSize: 0x2C }
  - { offsetInCU: 0x19FD4, offset: 0x19FD4, size: 0x8, addend: 0x0, symName: __ZNSt3__16vectorI4FaceNS_9allocatorIS1_EEEC1B7v160006Ev, symObjAddr: 0xE88, symBinAddr: 0x100003B90, symSize: 0x2C }
  - { offsetInCU: 0x1A11A, offset: 0x1A11A, size: 0x8, addend: 0x0, symName: __ZNSt3__114basic_ifstreamIcNS_11char_traitsIcEEEC1EPKcj, symObjAddr: 0xEB4, symBinAddr: 0x100003BBC, symSize: 0x16C }
  - { offsetInCU: 0x1A164, offset: 0x1A164, size: 0x8, addend: 0x0, symName: __ZNKSt3__114basic_ifstreamIcNS_11char_traitsIcEEE7is_openEv, symObjAddr: 0x1020, symBinAddr: 0x100003D28, symSize: 0x2C }
  - { offsetInCU: 0x1A18C, offset: 0x1A18C, size: 0x8, addend: 0x0, symName: __ZNSt3__113basic_ostreamIcNS_11char_traitsIcEEElsB7v160006EPFRS3_S4_E, symObjAddr: 0x1094, symBinAddr: 0x100003D9C, symSize: 0x2C }
  - { offsetInCU: 0x1A1C0, offset: 0x1A1C0, size: 0x8, addend: 0x0, symName: __ZNSt3__112basic_stringIcNS_11char_traitsIcEENS_9allocatorIcEEEC1B7v160006Ev, symObjAddr: 0x1118, symBinAddr: 0x100003E20, symSize: 0x2C }
  - { offsetInCU: 0x1A1EA, offset: 0x1A1EA, size: 0x8, addend: 0x0, symName: __ZNKSt3__19basic_iosIcNS_11char_traitsIcEEEcvbB7v160006Ev, symObjAddr: 0x11A0, symBinAddr: 0x100003EA8, symSize: 0x2C }
  - { offsetInCU: 0x1A210, offset: 0x1A210, size: 0x8, addend: 0x0, symName: __ZNKSt3__112basic_stringIcNS_11char_traitsIcEENS_9allocatorIcEEE6substrB7v160006Emm, symObjAddr: 0x1278, symBinAddr: 0x100003F80, symSize: 0x68 }
  - { offsetInCU: 0x1A254, offset: 0x1A254, size: 0x8, addend: 0x0, symName: __ZNKSt3__112basic_stringIcNS_11char_traitsIcEENS_9allocatorIcEEE5c_strB7v160006Ev, symObjAddr: 0x12E0, symBinAddr: 0x100003FE8, symSize: 0x24 }
  - { offsetInCU: 0x1A27A, offset: 0x1A27A, size: 0x8, addend: 0x0, symName: __ZNSt3__16vectorIN3glm3vecILi3EfLNS1_9qualifierE0EEENS_9allocatorIS4_EEE9push_backB7v160006ERKS4_, symObjAddr: 0x1304, symBinAddr: 0x10000400C, symSize: 0x6C }
  - { offsetInCU: 0x1A2B1, offset: 0x1A2B1, size: 0x8, addend: 0x0, symName: __ZNSt3__16vectorIN3glm3vecILi2EfLNS1_9qualifierE0EEENS_9allocatorIS4_EEE9push_backB7v160006ERKS4_, symObjAddr: 0x1370, symBinAddr: 0x100004078, symSize: 0x6C }
  - { offsetInCU: 0x1A2E8, offset: 0x1A2E8, size: 0x8, addend: 0x0, symName: __ZNSt3__16vectorI4FaceNS_9allocatorIS1_EEE9push_backB7v160006ERKS1_, symObjAddr: 0x13DC, symBinAddr: 0x1000040E4, symSize: 0x6C }
  - { offsetInCU: 0x1A31F, offset: 0x1A31F, size: 0x8, addend: 0x0, symName: __ZNSt3__114basic_ifstreamIcNS_11char_traitsIcEEE5closeEv, symObjAddr: 0x1448, symBinAddr: 0x100004150, symSize: 0x58 }
  - { offsetInCU: 0x1A347, offset: 0x1A347, size: 0x8, addend: 0x0, symName: __ZNKSt3__16vectorIN3glm3vecILi3EfLNS1_9qualifierE0EEENS_9allocatorIS4_EEE4sizeB7v160006Ev, symObjAddr: 0x14A0, symBinAddr: 0x1000041A8, symSize: 0x28 }
  - { offsetInCU: 0x1A36D, offset: 0x1A36D, size: 0x8, addend: 0x0, symName: __ZNSt3__16vectorIN3glm3vecILi3EfLNS1_9qualifierE0EEENS_9allocatorIS4_EEEixB7v160006Em, symObjAddr: 0x14C8, symBinAddr: 0x1000041D0, symSize: 0x2C }
  - { offsetInCU: 0x1A3A4, offset: 0x1A3A4, size: 0x8, addend: 0x0, symName: __ZNKSt3__16vectorIN3glm3vecILi2EfLNS1_9qualifierE0EEENS_9allocatorIS4_EEE4sizeB7v160006Ev, symObjAddr: 0x14F4, symBinAddr: 0x1000041FC, symSize: 0x28 }
  - { offsetInCU: 0x1A3CA, offset: 0x1A3CA, size: 0x8, addend: 0x0, symName: __ZNSt3__16vectorIN3glm3vecILi2EfLNS1_9qualifierE0EEENS_9allocatorIS4_EEEixB7v160006Em, symObjAddr: 0x151C, symBinAddr: 0x100004224, symSize: 0x24 }
  - { offsetInCU: 0x1A401, offset: 0x1A401, size: 0x8, addend: 0x0, symName: __ZNSt3__16vectorIjNS_9allocatorIjEEEC1B7v160006Ev, symObjAddr: 0x1540, symBinAddr: 0x100004248, symSize: 0x2C }
  - { offsetInCU: 0x1A42B, offset: 0x1A42B, size: 0x8, addend: 0x0, symName: __ZNSt3__16vectorI4FaceNS_9allocatorIS1_EEE5beginB7v160006Ev, symObjAddr: 0x156C, symBinAddr: 0x100004274, symSize: 0x30 }
  - { offsetInCU: 0x1A453, offset: 0x1A453, size: 0x8, addend: 0x0, symName: __ZNSt3__16vectorI4FaceNS_9allocatorIS1_EEE3endB7v160006Ev, symObjAddr: 0x159C, symBinAddr: 0x1000042A4, symSize: 0x30 }
  - { offsetInCU: 0x1A47B, offset: 0x1A47B, size: 0x8, addend: 0x0, symName: __ZNKSt3__111__wrap_iterIP4FaceEdeB7v160006Ev, symObjAddr: 0x1600, symBinAddr: 0x100004308, symSize: 0x18 }
  - { offsetInCU: 0x1A4A1, offset: 0x1A4A1, size: 0x8, addend: 0x0, symName: __ZNSt3__16vectorIjNS_9allocatorIjEEE9push_backB7v160006EOj, symObjAddr: 0x1618, symBinAddr: 0x100004320, symSize: 0x6C }
  - { offsetInCU: 0x1A4D8, offset: 0x1A4D8, size: 0x8, addend: 0x0, symName: __ZNSt3__111__wrap_iterIP4FaceEppB7v160006Ev, symObjAddr: 0x1684, symBinAddr: 0x10000438C, symSize: 0x20 }
  - { offsetInCU: 0x1A4FE, offset: 0x1A4FE, size: 0x8, addend: 0x0, symName: __ZNKSt3__16vectorI4FaceNS_9allocatorIS1_EEE4sizeB7v160006Ev, symObjAddr: 0x16A4, symBinAddr: 0x1000043AC, symSize: 0x28 }
  - { offsetInCU: 0x1A524, offset: 0x1A524, size: 0x8, addend: 0x0, symName: __ZNKSt3__16vectorIjNS_9allocatorIjEEE4sizeB7v160006Ev, symObjAddr: 0x16CC, symBinAddr: 0x1000043D4, symSize: 0x28 }
  - { offsetInCU: 0x1A54A, offset: 0x1A54A, size: 0x8, addend: 0x0, symName: __ZNSt3__16vectorIjNS_9allocatorIjEEEixB7v160006Em, symObjAddr: 0x16F4, symBinAddr: 0x1000043FC, symSize: 0x24 }
  - { offsetInCU: 0x1A581, offset: 0x1A581, size: 0x8, addend: 0x0, symName: __ZNSt3__16vectorIjNS_9allocatorIjEEED1B7v160006Ev, symObjAddr: 0x1718, symBinAddr: 0x100004420, symSize: 0x2C }
  - { offsetInCU: 0x1A5B0, offset: 0x1A5B0, size: 0x8, addend: 0x0, symName: __ZNSt3__114basic_ifstreamIcNS_11char_traitsIcEEED1Ev, symObjAddr: 0x1744, symBinAddr: 0x10000444C, symSize: 0x40 }
  - { offsetInCU: 0x1A5DD, offset: 0x1A5DD, size: 0x8, addend: 0x0, symName: __ZNSt3__16vectorI4FaceNS_9allocatorIS1_EEED1B7v160006Ev, symObjAddr: 0x1784, symBinAddr: 0x10000448C, symSize: 0x2C }
  - { offsetInCU: 0x1A607, offset: 0x1A607, size: 0x8, addend: 0x0, symName: __ZNSt3__16vectorIN3glm3vecILi3EfLNS1_9qualifierE0EEENS_9allocatorIS4_EEED1B7v160006Ev, symObjAddr: 0x17B0, symBinAddr: 0x1000044B8, symSize: 0x2C }
  - { offsetInCU: 0x1A631, offset: 0x1A631, size: 0x8, addend: 0x0, symName: __ZNSt3__16vectorIN3glm3vecILi2EfLNS1_9qualifierE0EEENS_9allocatorIS4_EEED1B7v160006Ev, symObjAddr: 0x17DC, symBinAddr: 0x1000044E4, symSize: 0x2C }
  - { offsetInCU: 0x1A65A, offset: 0x1A65A, size: 0x8, addend: 0x0, symName: __Z7loadOBJPKcRNSt3__16vectorIN3glm3vecILi3EfLNS3_9qualifierE0EEENS1_9allocatorIS6_EEEERNS2_INS4_ILi2EfLS5_0EEENS7_ISB_EEEESA_, symObjAddr: 0x1808, symBinAddr: 0x100004510, symSize: 0x69C }
  - { offsetInCU: 0x1A8D2, offset: 0x1A8D2, size: 0x8, addend: 0x0, symName: __ZNSt3__16vectorIjNS_9allocatorIjEEE9push_backB7v160006ERKj, symObjAddr: 0x1EA4, symBinAddr: 0x100004BAC, symSize: 0x6C }
  - { offsetInCU: 0x1A909, offset: 0x1A909, size: 0x8, addend: 0x0, symName: __ZNKSt3__111__wrap_iterIP4FaceE4baseB7v160006Ev, symObjAddr: 0x1F58, symBinAddr: 0x100004C60, symSize: 0x18 }
  - { offsetInCU: 0x1A92F, offset: 0x1A92F, size: 0x8, addend: 0x0, symName: __ZNSt3__114basic_ifstreamIcNS_11char_traitsIcEEED2Ev, symObjAddr: 0x1F70, symBinAddr: 0x100004C78, symSize: 0x64 }
  - { offsetInCU: 0x1A969, offset: 0x1A969, size: 0x8, addend: 0x0, symName: __ZTv0_n24_NSt3__114basic_ifstreamIcNS_11char_traitsIcEEED1Ev, symObjAddr: 0x1FD4, symBinAddr: 0x100004CDC, symSize: 0x28 }
  - { offsetInCU: 0x1A980, offset: 0x1A980, size: 0x8, addend: 0x0, symName: __ZNSt3__112basic_stringIcNS_11char_traitsIcEENS_9allocatorIcEEEC2B7v160006Ev, symObjAddr: 0x1FFC, symBinAddr: 0x100004D04, symSize: 0x54 }
  - { offsetInCU: 0x1A9B0, offset: 0x1A9B0, size: 0x8, addend: 0x0, symName: __ZNSt3__117__compressed_pairINS_12basic_stringIcNS_11char_traitsIcEENS_9allocatorIcEEE5__repES5_EC1B7v160006INS_18__default_init_tagESA_EEOT_OT0_, symObjAddr: 0x2050, symBinAddr: 0x100004D58, symSize: 0x3C }
  - { offsetInCU: 0x1AA08, offset: 0x1AA08, size: 0x8, addend: 0x0, symName: __ZNSt3__112basic_stringIcNS_11char_traitsIcEENS_9allocatorIcEEE14__default_initB7v160006Ev, symObjAddr: 0x209C, symBinAddr: 0x100004DA4, symSize: 0x40 }
  - { offsetInCU: 0x1AA2E, offset: 0x1AA2E, size: 0x8, addend: 0x0, symName: __ZNSt3__117__compressed_pairINS_12basic_stringIcNS_11char_traitsIcEENS_9allocatorIcEEE5__repES5_EC2B7v160006INS_18__default_init_tagESA_EEOT_OT0_, symObjAddr: 0x20DC, symBinAddr: 0x100004DE4, symSize: 0x3C }
  - { offsetInCU: 0x1AA86, offset: 0x1AA86, size: 0x8, addend: 0x0, symName: __ZNSt3__122__compressed_pair_elemINS_12basic_stringIcNS_11char_traitsIcEENS_9allocatorIcEEE5__repELi0ELb0EEC2B7v160006ENS_18__default_init_tagE, symObjAddr: 0x2118, symBinAddr: 0x100004E20, symSize: 0x14 }
  - { offsetInCU: 0x1AABB, offset: 0x1AABB, size: 0x8, addend: 0x0, symName: __ZNSt3__122__compressed_pair_elemINS_9allocatorIcEELi1ELb1EEC2B7v160006ENS_18__default_init_tagE, symObjAddr: 0x212C, symBinAddr: 0x100004E34, symSize: 0x2C }
  - { offsetInCU: 0x1AAF0, offset: 0x1AAF0, size: 0x8, addend: 0x0, symName: __ZNSt3__19allocatorIcEC2B7v160006Ev, symObjAddr: 0x2158, symBinAddr: 0x100004E60, symSize: 0x2C }
  - { offsetInCU: 0x1AB1A, offset: 0x1AB1A, size: 0x8, addend: 0x0, symName: __ZNSt3__116__non_trivial_ifILb1ENS_9allocatorIcEEEC2B7v160006Ev, symObjAddr: 0x2184, symBinAddr: 0x100004E8C, symSize: 0x14 }
  - { offsetInCU: 0x1AB44, offset: 0x1AB44, size: 0x8, addend: 0x0, symName: __ZNSt3__117__compressed_pairINS_12basic_stringIcNS_11char_traitsIcEENS_9allocatorIcEEE5__repES5_E5firstB7v160006Ev, symObjAddr: 0x2198, symBinAddr: 0x100004EA0, symSize: 0x24 }
  - { offsetInCU: 0x1AB6A, offset: 0x1AB6A, size: 0x8, addend: 0x0, symName: __ZNSt3__122__compressed_pair_elemINS_12basic_stringIcNS_11char_traitsIcEENS_9allocatorIcEEE5__repELi0ELb0EE5__getB7v160006Ev, symObjAddr: 0x21BC, symBinAddr: 0x100004EC4, symSize: 0x14 }
  - { offsetInCU: 0x1AB90, offset: 0x1AB90, size: 0x8, addend: 0x0, symName: __ZNKSt3__112basic_stringIcNS_11char_traitsIcEENS_9allocatorIcEEE4dataB7v160006Ev, symObjAddr: 0x21D0, symBinAddr: 0x100004ED8, symSize: 0x28 }
  - { offsetInCU: 0x1ABB6, offset: 0x1ABB6, size: 0x8, addend: 0x0, symName: __ZNKSt3__112basic_stringIcNS_11char_traitsIcEENS_9allocatorIcEEE13__get_pointerB7v160006Ev, symObjAddr: 0x220C, symBinAddr: 0x100004F14, symSize: 0x54 }
  - { offsetInCU: 0x1ABDC, offset: 0x1ABDC, size: 0x8, addend: 0x0, symName: __ZNKSt3__112basic_stringIcNS_11char_traitsIcEENS_9allocatorIcEEE9__is_longB7v160006Ev, symObjAddr: 0x2260, symBinAddr: 0x100004F68, symSize: 0x38 }
  - { offsetInCU: 0x1AC02, offset: 0x1AC02, size: 0x8, addend: 0x0, symName: __ZNKSt3__112basic_stringIcNS_11char_traitsIcEENS_9allocatorIcEEE18__get_long_pointerB7v160006Ev, symObjAddr: 0x2298, symBinAddr: 0x100004FA0, symSize: 0x28 }
  - { offsetInCU: 0x1AC28, offset: 0x1AC28, size: 0x8, addend: 0x0, symName: __ZNKSt3__112basic_stringIcNS_11char_traitsIcEENS_9allocatorIcEEE19__get_short_pointerB7v160006Ev, symObjAddr: 0x22C0, symBinAddr: 0x100004FC8, symSize: 0x28 }
  - { offsetInCU: 0x1AC4E, offset: 0x1AC4E, size: 0x8, addend: 0x0, symName: __ZNKSt3__117__compressed_pairINS_12basic_stringIcNS_11char_traitsIcEENS_9allocatorIcEEE5__repES5_E5firstB7v160006Ev, symObjAddr: 0x22E8, symBinAddr: 0x100004FF0, symSize: 0x24 }
  - { offsetInCU: 0x1AC74, offset: 0x1AC74, size: 0x8, addend: 0x0, symName: __ZNKSt3__122__compressed_pair_elemINS_12basic_stringIcNS_11char_traitsIcEENS_9allocatorIcEEE5__repELi0ELb0EE5__getB7v160006Ev, symObjAddr: 0x230C, symBinAddr: 0x100005014, symSize: 0x14 }
  - { offsetInCU: 0x1AC9A, offset: 0x1AC9A, size: 0x8, addend: 0x0, symName: __ZNSt3__114pointer_traitsIPKcE10pointer_toB7v160006ERS1_, symObjAddr: 0x2320, symBinAddr: 0x100005028, symSize: 0x14 }
  - { offsetInCU: 0x1ACBD, offset: 0x1ACBD, size: 0x8, addend: 0x0, symName: __ZNSt3__16vectorIN3glm3vecILi3EfLNS1_9qualifierE0EEENS_9allocatorIS4_EEEC2B7v160006Ev, symObjAddr: 0x2334, symBinAddr: 0x10000503C, symSize: 0x58 }
  - { offsetInCU: 0x1ACED, offset: 0x1ACED, size: 0x8, addend: 0x0, symName: __ZNSt3__117__compressed_pairIPN3glm3vecILi3EfLNS1_9qualifierE0EEENS_9allocatorIS4_EEEC1B7v160006IDnNS_18__default_init_tagEEEOT_OT0_, symObjAddr: 0x238C, symBinAddr: 0x100005094, symSize: 0x3C }
  - { offsetInCU: 0x1AD45, offset: 0x1AD45, size: 0x8, addend: 0x0, symName: __ZNSt3__117__compressed_pairIPN3glm3vecILi3EfLNS1_9qualifierE0EEENS_9allocatorIS4_EEEC2B7v160006IDnNS_18__default_init_tagEEEOT_OT0_, symObjAddr: 0x23D8, symBinAddr: 0x1000050E0, symSize: 0x40 }
  - { offsetInCU: 0x1AD9D, offset: 0x1AD9D, size: 0x8, addend: 0x0, symName: __ZNSt3__122__compressed_pair_elemIPN3glm3vecILi3EfLNS1_9qualifierE0EEELi0ELb0EEC2B7v160006IDnvEEOT_, symObjAddr: 0x2418, symBinAddr: 0x100005120, symSize: 0x1C }
  - { offsetInCU: 0x1ADDF, offset: 0x1ADDF, size: 0x8, addend: 0x0, symName: __ZNSt3__122__compressed_pair_elemINS_9allocatorIN3glm3vecILi3EfLNS2_9qualifierE0EEEEELi1ELb1EEC2B7v160006ENS_18__default_init_tagE, symObjAddr: 0x2434, symBinAddr: 0x10000513C, symSize: 0x2C }
  - { offsetInCU: 0x1AE14, offset: 0x1AE14, size: 0x8, addend: 0x0, symName: __ZNSt3__19allocatorIN3glm3vecILi3EfLNS1_9qualifierE0EEEEC2B7v160006Ev, symObjAddr: 0x2460, symBinAddr: 0x100005168, symSize: 0x2C }
  - { offsetInCU: 0x1AE3E, offset: 0x1AE3E, size: 0x8, addend: 0x0, symName: __ZNSt3__116__non_trivial_ifILb1ENS_9allocatorIN3glm3vecILi3EfLNS2_9qualifierE0EEEEEEC2B7v160006Ev, symObjAddr: 0x248C, symBinAddr: 0x100005194, symSize: 0x14 }
  - { offsetInCU: 0x1AE68, offset: 0x1AE68, size: 0x8, addend: 0x0, symName: __ZNSt3__16vectorIN3glm3vecILi3EfLNS1_9qualifierE0EEENS_9allocatorIS4_EEED2B7v160006Ev, symObjAddr: 0x24A0, symBinAddr: 0x1000051A8, symSize: 0x44 }
  - { offsetInCU: 0x1AE92, offset: 0x1AE92, size: 0x8, addend: 0x0, symName: __ZNSt3__16vectorIN3glm3vecILi3EfLNS1_9qualifierE0EEENS_9allocatorIS4_EEE16__destroy_vectorC1ERS7_, symObjAddr: 0x24E4, symBinAddr: 0x1000051EC, symSize: 0x34 }
  - { offsetInCU: 0x1AECB, offset: 0x1AECB, size: 0x8, addend: 0x0, symName: __ZNSt3__16vectorIN3glm3vecILi3EfLNS1_9qualifierE0EEENS_9allocatorIS4_EEE16__destroy_vectorclB7v160006Ev, symObjAddr: 0x2518, symBinAddr: 0x100005220, symSize: 0x9C }
  - { offsetInCU: 0x1AEF1, offset: 0x1AEF1, size: 0x8, addend: 0x0, symName: __ZNSt3__16vectorIN3glm3vecILi3EfLNS1_9qualifierE0EEENS_9allocatorIS4_EEE16__destroy_vectorC2ERS7_, symObjAddr: 0x25B4, symBinAddr: 0x1000052BC, symSize: 0x20 }
  - { offsetInCU: 0x1AF2A, offset: 0x1AF2A, size: 0x8, addend: 0x0, symName: __ZNKSt3__16vectorIN3glm3vecILi3EfLNS1_9qualifierE0EEENS_9allocatorIS4_EEE17__annotate_deleteB7v160006Ev, symObjAddr: 0x25D4, symBinAddr: 0x1000052DC, symSize: 0xD4 }
  - { offsetInCU: 0x1AF50, offset: 0x1AF50, size: 0x8, addend: 0x0, symName: __ZNSt3__16vectorIN3glm3vecILi3EfLNS1_9qualifierE0EEENS_9allocatorIS4_EEE7__clearB7v160006Ev, symObjAddr: 0x26B8, symBinAddr: 0x1000053C0, symSize: 0x28 }
  - { offsetInCU: 0x1AF76, offset: 0x1AF76, size: 0x8, addend: 0x0, symName: __ZNSt3__116allocator_traitsINS_9allocatorIN3glm3vecILi3EfLNS2_9qualifierE0EEEEEE10deallocateB7v160006ERS6_PS5_m, symObjAddr: 0x26E0, symBinAddr: 0x1000053E8, symSize: 0x34 }
  - { offsetInCU: 0x1AFB8, offset: 0x1AFB8, size: 0x8, addend: 0x0, symName: __ZNSt3__16vectorIN3glm3vecILi3EfLNS1_9qualifierE0EEENS_9allocatorIS4_EEE7__allocB7v160006Ev, symObjAddr: 0x2714, symBinAddr: 0x10000541C, symSize: 0x28 }
  - { offsetInCU: 0x1AFDE, offset: 0x1AFDE, size: 0x8, addend: 0x0, symName: __ZNKSt3__16vectorIN3glm3vecILi3EfLNS1_9qualifierE0EEENS_9allocatorIS4_EEE8capacityB7v160006Ev, symObjAddr: 0x273C, symBinAddr: 0x100005444, symSize: 0x40 }
  - { offsetInCU: 0x1B004, offset: 0x1B004, size: 0x8, addend: 0x0, symName: __ZNKSt3__16vectorIN3glm3vecILi3EfLNS1_9qualifierE0EEENS_9allocatorIS4_EEE31__annotate_contiguous_containerB7v160006EPKvS9_S9_S9_, symObjAddr: 0x277C, symBinAddr: 0x100005484, symSize: 0x20 }
  - { offsetInCU: 0x1B056, offset: 0x1B056, size: 0x8, addend: 0x0, symName: __ZNKSt3__16vectorIN3glm3vecILi3EfLNS1_9qualifierE0EEENS_9allocatorIS4_EEE4dataB7v160006Ev, symObjAddr: 0x279C, symBinAddr: 0x1000054A4, symSize: 0x28 }
  - { offsetInCU: 0x1B07C, offset: 0x1B07C, size: 0x8, addend: 0x0, symName: __ZNSt3__16vectorIN3glm3vecILi3EfLNS1_9qualifierE0EEENS_9allocatorIS4_EEE22__base_destruct_at_endB7v160006EPS4_, symObjAddr: 0x27D8, symBinAddr: 0x1000054E0, symSize: 0x8C }
  - { offsetInCU: 0x1B0C0, offset: 0x1B0C0, size: 0x8, addend: 0x0, symName: __ZNSt3__116allocator_traitsINS_9allocatorIN3glm3vecILi3EfLNS2_9qualifierE0EEEEEE7destroyB7v160006IS5_vEEvRS6_PT_, symObjAddr: 0x2864, symBinAddr: 0x10000556C, symSize: 0x2C }
  - { offsetInCU: 0x1B0FD, offset: 0x1B0FD, size: 0x8, addend: 0x0, symName: __ZNSt3__19allocatorIN3glm3vecILi3EfLNS1_9qualifierE0EEEE7destroyB7v160006EPS4_, symObjAddr: 0x2890, symBinAddr: 0x100005598, symSize: 0x14 }
  - { offsetInCU: 0x1B131, offset: 0x1B131, size: 0x8, addend: 0x0, symName: __ZNSt3__19allocatorIN3glm3vecILi3EfLNS1_9qualifierE0EEEE10deallocateB7v160006EPS4_m, symObjAddr: 0x28A4, symBinAddr: 0x1000055AC, symSize: 0x44 }
  - { offsetInCU: 0x1B173, offset: 0x1B173, size: 0x8, addend: 0x0, symName: __ZNSt3__117__compressed_pairIPN3glm3vecILi3EfLNS1_9qualifierE0EEENS_9allocatorIS4_EEE6secondB7v160006Ev, symObjAddr: 0x2A10, symBinAddr: 0x100005718, symSize: 0x24 }
  - { offsetInCU: 0x1B199, offset: 0x1B199, size: 0x8, addend: 0x0, symName: __ZNSt3__122__compressed_pair_elemINS_9allocatorIN3glm3vecILi3EfLNS2_9qualifierE0EEEEELi1ELb1EE5__getB7v160006Ev, symObjAddr: 0x2A34, symBinAddr: 0x10000573C, symSize: 0x14 }
  - { offsetInCU: 0x1B1BF, offset: 0x1B1BF, size: 0x8, addend: 0x0, symName: __ZNKSt3__16vectorIN3glm3vecILi3EfLNS1_9qualifierE0EEENS_9allocatorIS4_EEE9__end_capB7v160006Ev, symObjAddr: 0x2A48, symBinAddr: 0x100005750, symSize: 0x28 }
  - { offsetInCU: 0x1B1E5, offset: 0x1B1E5, size: 0x8, addend: 0x0, symName: __ZNKSt3__117__compressed_pairIPN3glm3vecILi3EfLNS1_9qualifierE0EEENS_9allocatorIS4_EEE5firstB7v160006Ev, symObjAddr: 0x2A70, symBinAddr: 0x100005778, symSize: 0x24 }
  - { offsetInCU: 0x1B20B, offset: 0x1B20B, size: 0x8, addend: 0x0, symName: __ZNKSt3__122__compressed_pair_elemIPN3glm3vecILi3EfLNS1_9qualifierE0EEELi0ELb0EE5__getB7v160006Ev, symObjAddr: 0x2A94, symBinAddr: 0x10000579C, symSize: 0x14 }
  - { offsetInCU: 0x1B231, offset: 0x1B231, size: 0x8, addend: 0x0, symName: __ZNSt3__16vectorIN3glm3vecILi2EfLNS1_9qualifierE0EEENS_9allocatorIS4_EEEC2B7v160006Ev, symObjAddr: 0x2AA8, symBinAddr: 0x1000057B0, symSize: 0x58 }
  - { offsetInCU: 0x1B25B, offset: 0x1B25B, size: 0x8, addend: 0x0, symName: __ZNSt3__117__compressed_pairIPN3glm3vecILi2EfLNS1_9qualifierE0EEENS_9allocatorIS4_EEEC1B7v160006IDnNS_18__default_init_tagEEEOT_OT0_, symObjAddr: 0x2B00, symBinAddr: 0x100005808, symSize: 0x3C }
  - { offsetInCU: 0x1B2B3, offset: 0x1B2B3, size: 0x8, addend: 0x0, symName: __ZNSt3__117__compressed_pairIPN3glm3vecILi2EfLNS1_9qualifierE0EEENS_9allocatorIS4_EEEC2B7v160006IDnNS_18__default_init_tagEEEOT_OT0_, symObjAddr: 0x2B4C, symBinAddr: 0x100005854, symSize: 0x40 }
  - { offsetInCU: 0x1B30B, offset: 0x1B30B, size: 0x8, addend: 0x0, symName: __ZNSt3__122__compressed_pair_elemIPN3glm3vecILi2EfLNS1_9qualifierE0EEELi0ELb0EEC2B7v160006IDnvEEOT_, symObjAddr: 0x2B8C, symBinAddr: 0x100005894, symSize: 0x1C }
  - { offsetInCU: 0x1B34D, offset: 0x1B34D, size: 0x8, addend: 0x0, symName: __ZNSt3__122__compressed_pair_elemINS_9allocatorIN3glm3vecILi2EfLNS2_9qualifierE0EEEEELi1ELb1EEC2B7v160006ENS_18__default_init_tagE, symObjAddr: 0x2BA8, symBinAddr: 0x1000058B0, symSize: 0x2C }
  - { offsetInCU: 0x1B382, offset: 0x1B382, size: 0x8, addend: 0x0, symName: __ZNSt3__19allocatorIN3glm3vecILi2EfLNS1_9qualifierE0EEEEC2B7v160006Ev, symObjAddr: 0x2BD4, symBinAddr: 0x1000058DC, symSize: 0x2C }
  - { offsetInCU: 0x1B3AC, offset: 0x1B3AC, size: 0x8, addend: 0x0, symName: __ZNSt3__116__non_trivial_ifILb1ENS_9allocatorIN3glm3vecILi2EfLNS2_9qualifierE0EEEEEEC2B7v160006Ev, symObjAddr: 0x2C00, symBinAddr: 0x100005908, symSize: 0x14 }
  - { offsetInCU: 0x1B3D6, offset: 0x1B3D6, size: 0x8, addend: 0x0, symName: __ZNSt3__16vectorIN3glm3vecILi2EfLNS1_9qualifierE0EEENS_9allocatorIS4_EEED2B7v160006Ev, symObjAddr: 0x2C14, symBinAddr: 0x10000591C, symSize: 0x44 }
  - { offsetInCU: 0x1B400, offset: 0x1B400, size: 0x8, addend: 0x0, symName: __ZNSt3__16vectorIN3glm3vecILi2EfLNS1_9qualifierE0EEENS_9allocatorIS4_EEE16__destroy_vectorC1ERS7_, symObjAddr: 0x2C58, symBinAddr: 0x100005960, symSize: 0x34 }
  - { offsetInCU: 0x1B439, offset: 0x1B439, size: 0x8, addend: 0x0, symName: __ZNSt3__16vectorIN3glm3vecILi2EfLNS1_9qualifierE0EEENS_9allocatorIS4_EEE16__destroy_vectorclB7v160006Ev, symObjAddr: 0x2C8C, symBinAddr: 0x100005994, symSize: 0x9C }
  - { offsetInCU: 0x1B45F, offset: 0x1B45F, size: 0x8, addend: 0x0, symName: __ZNSt3__16vectorIN3glm3vecILi2EfLNS1_9qualifierE0EEENS_9allocatorIS4_EEE16__destroy_vectorC2ERS7_, symObjAddr: 0x2D28, symBinAddr: 0x100005A30, symSize: 0x20 }
  - { offsetInCU: 0x1B498, offset: 0x1B498, size: 0x8, addend: 0x0, symName: __ZNKSt3__16vectorIN3glm3vecILi2EfLNS1_9qualifierE0EEENS_9allocatorIS4_EEE17__annotate_deleteB7v160006Ev, symObjAddr: 0x2D48, symBinAddr: 0x100005A50, symSize: 0xB8 }
  - { offsetInCU: 0x1B4BE, offset: 0x1B4BE, size: 0x8, addend: 0x0, symName: __ZNSt3__16vectorIN3glm3vecILi2EfLNS1_9qualifierE0EEENS_9allocatorIS4_EEE7__clearB7v160006Ev, symObjAddr: 0x2E10, symBinAddr: 0x100005B18, symSize: 0x28 }
  - { offsetInCU: 0x1B4E4, offset: 0x1B4E4, size: 0x8, addend: 0x0, symName: __ZNSt3__116allocator_traitsINS_9allocatorIN3glm3vecILi2EfLNS2_9qualifierE0EEEEEE10deallocateB7v160006ERS6_PS5_m, symObjAddr: 0x2E38, symBinAddr: 0x100005B40, symSize: 0x34 }
  - { offsetInCU: 0x1B526, offset: 0x1B526, size: 0x8, addend: 0x0, symName: __ZNSt3__16vectorIN3glm3vecILi2EfLNS1_9qualifierE0EEENS_9allocatorIS4_EEE7__allocB7v160006Ev, symObjAddr: 0x2E6C, symBinAddr: 0x100005B74, symSize: 0x28 }
  - { offsetInCU: 0x1B54C, offset: 0x1B54C, size: 0x8, addend: 0x0, symName: __ZNKSt3__16vectorIN3glm3vecILi2EfLNS1_9qualifierE0EEENS_9allocatorIS4_EEE8capacityB7v160006Ev, symObjAddr: 0x2E94, symBinAddr: 0x100005B9C, symSize: 0x40 }
  - { offsetInCU: 0x1B572, offset: 0x1B572, size: 0x8, addend: 0x0, symName: __ZNKSt3__16vectorIN3glm3vecILi2EfLNS1_9qualifierE0EEENS_9allocatorIS4_EEE31__annotate_contiguous_containerB7v160006EPKvS9_S9_S9_, symObjAddr: 0x2ED4, symBinAddr: 0x100005BDC, symSize: 0x20 }
  - { offsetInCU: 0x1B5C4, offset: 0x1B5C4, size: 0x8, addend: 0x0, symName: __ZNKSt3__16vectorIN3glm3vecILi2EfLNS1_9qualifierE0EEENS_9allocatorIS4_EEE4dataB7v160006Ev, symObjAddr: 0x2EF4, symBinAddr: 0x100005BFC, symSize: 0x28 }
  - { offsetInCU: 0x1B5EA, offset: 0x1B5EA, size: 0x8, addend: 0x0, symName: __ZNSt3__16vectorIN3glm3vecILi2EfLNS1_9qualifierE0EEENS_9allocatorIS4_EEE22__base_destruct_at_endB7v160006EPS4_, symObjAddr: 0x2F30, symBinAddr: 0x100005C38, symSize: 0x8C }
  - { offsetInCU: 0x1B62E, offset: 0x1B62E, size: 0x8, addend: 0x0, symName: __ZNSt3__116allocator_traitsINS_9allocatorIN3glm3vecILi2EfLNS2_9qualifierE0EEEEEE7destroyB7v160006IS5_vEEvRS6_PT_, symObjAddr: 0x2FBC, symBinAddr: 0x100005CC4, symSize: 0x2C }
  - { offsetInCU: 0x1B66B, offset: 0x1B66B, size: 0x8, addend: 0x0, symName: __ZNSt3__19allocatorIN3glm3vecILi2EfLNS1_9qualifierE0EEEE7destroyB7v160006EPS4_, symObjAddr: 0x2FE8, symBinAddr: 0x100005CF0, symSize: 0x14 }
  - { offsetInCU: 0x1B69F, offset: 0x1B69F, size: 0x8, addend: 0x0, symName: __ZNSt3__19allocatorIN3glm3vecILi2EfLNS1_9qualifierE0EEEE10deallocateB7v160006EPS4_m, symObjAddr: 0x2FFC, symBinAddr: 0x100005D04, symSize: 0x40 }
  - { offsetInCU: 0x1B6E1, offset: 0x1B6E1, size: 0x8, addend: 0x0, symName: __ZNSt3__117__compressed_pairIPN3glm3vecILi2EfLNS1_9qualifierE0EEENS_9allocatorIS4_EEE6secondB7v160006Ev, symObjAddr: 0x303C, symBinAddr: 0x100005D44, symSize: 0x24 }
  - { offsetInCU: 0x1B707, offset: 0x1B707, size: 0x8, addend: 0x0, symName: __ZNSt3__122__compressed_pair_elemINS_9allocatorIN3glm3vecILi2EfLNS2_9qualifierE0EEEEELi1ELb1EE5__getB7v160006Ev, symObjAddr: 0x3060, symBinAddr: 0x100005D68, symSize: 0x14 }
  - { offsetInCU: 0x1B72D, offset: 0x1B72D, size: 0x8, addend: 0x0, symName: __ZNKSt3__16vectorIN3glm3vecILi2EfLNS1_9qualifierE0EEENS_9allocatorIS4_EEE9__end_capB7v160006Ev, symObjAddr: 0x3074, symBinAddr: 0x100005D7C, symSize: 0x28 }
  - { offsetInCU: 0x1B753, offset: 0x1B753, size: 0x8, addend: 0x0, symName: __ZNKSt3__117__compressed_pairIPN3glm3vecILi2EfLNS1_9qualifierE0EEENS_9allocatorIS4_EEE5firstB7v160006Ev, symObjAddr: 0x309C, symBinAddr: 0x100005DA4, symSize: 0x24 }
  - { offsetInCU: 0x1B779, offset: 0x1B779, size: 0x8, addend: 0x0, symName: __ZNKSt3__122__compressed_pair_elemIPN3glm3vecILi2EfLNS1_9qualifierE0EEELi0ELb0EE5__getB7v160006Ev, symObjAddr: 0x30C0, symBinAddr: 0x100005DC8, symSize: 0x14 }
  - { offsetInCU: 0x1B79F, offset: 0x1B79F, size: 0x8, addend: 0x0, symName: __ZNSt3__16vectorI4FaceNS_9allocatorIS1_EEEC2B7v160006Ev, symObjAddr: 0x30D4, symBinAddr: 0x100005DDC, symSize: 0x58 }
  - { offsetInCU: 0x1B7C9, offset: 0x1B7C9, size: 0x8, addend: 0x0, symName: __ZNSt3__117__compressed_pairIP4FaceNS_9allocatorIS1_EEEC1B7v160006IDnNS_18__default_init_tagEEEOT_OT0_, symObjAddr: 0x312C, symBinAddr: 0x100005E34, symSize: 0x3C }
  - { offsetInCU: 0x1B821, offset: 0x1B821, size: 0x8, addend: 0x0, symName: __ZNSt3__117__compressed_pairIP4FaceNS_9allocatorIS1_EEEC2B7v160006IDnNS_18__default_init_tagEEEOT_OT0_, symObjAddr: 0x3178, symBinAddr: 0x100005E80, symSize: 0x40 }
  - { offsetInCU: 0x1B879, offset: 0x1B879, size: 0x8, addend: 0x0, symName: __ZNSt3__122__compressed_pair_elemIP4FaceLi0ELb0EEC2B7v160006IDnvEEOT_, symObjAddr: 0x31B8, symBinAddr: 0x100005EC0, symSize: 0x1C }
  - { offsetInCU: 0x1B8BB, offset: 0x1B8BB, size: 0x8, addend: 0x0, symName: __ZNSt3__122__compressed_pair_elemINS_9allocatorI4FaceEELi1ELb1EEC2B7v160006ENS_18__default_init_tagE, symObjAddr: 0x31D4, symBinAddr: 0x100005EDC, symSize: 0x2C }
  - { offsetInCU: 0x1B8F0, offset: 0x1B8F0, size: 0x8, addend: 0x0, symName: __ZNSt3__19allocatorI4FaceEC2B7v160006Ev, symObjAddr: 0x3200, symBinAddr: 0x100005F08, symSize: 0x2C }
  - { offsetInCU: 0x1B91A, offset: 0x1B91A, size: 0x8, addend: 0x0, symName: __ZNSt3__116__non_trivial_ifILb1ENS_9allocatorI4FaceEEEC2B7v160006Ev, symObjAddr: 0x322C, symBinAddr: 0x100005F34, symSize: 0x14 }
  - { offsetInCU: 0x1B944, offset: 0x1B944, size: 0x8, addend: 0x0, symName: __ZNSt3__16vectorI4FaceNS_9allocatorIS1_EEED2B7v160006Ev, symObjAddr: 0x3240, symBinAddr: 0x100005F48, symSize: 0x44 }
  - { offsetInCU: 0x1B96E, offset: 0x1B96E, size: 0x8, addend: 0x0, symName: __ZNSt3__16vectorI4FaceNS_9allocatorIS1_EEE16__destroy_vectorC1ERS4_, symObjAddr: 0x3284, symBinAddr: 0x100005F8C, symSize: 0x34 }
  - { offsetInCU: 0x1B9A7, offset: 0x1B9A7, size: 0x8, addend: 0x0, symName: __ZNSt3__16vectorI4FaceNS_9allocatorIS1_EEE16__destroy_vectorclB7v160006Ev, symObjAddr: 0x32B8, symBinAddr: 0x100005FC0, symSize: 0x9C }
  - { offsetInCU: 0x1B9CD, offset: 0x1B9CD, size: 0x8, addend: 0x0, symName: __ZNSt3__16vectorI4FaceNS_9allocatorIS1_EEE16__destroy_vectorC2ERS4_, symObjAddr: 0x3354, symBinAddr: 0x10000605C, symSize: 0x20 }
  - { offsetInCU: 0x1BA06, offset: 0x1BA06, size: 0x8, addend: 0x0, symName: __ZNKSt3__16vectorI4FaceNS_9allocatorIS1_EEE17__annotate_deleteB7v160006Ev, symObjAddr: 0x3374, symBinAddr: 0x10000607C, symSize: 0xD4 }
  - { offsetInCU: 0x1BA2C, offset: 0x1BA2C, size: 0x8, addend: 0x0, symName: __ZNSt3__16vectorI4FaceNS_9allocatorIS1_EEE7__clearB7v160006Ev, symObjAddr: 0x3458, symBinAddr: 0x100006160, symSize: 0x28 }
  - { offsetInCU: 0x1BA52, offset: 0x1BA52, size: 0x8, addend: 0x0, symName: __ZNSt3__116allocator_traitsINS_9allocatorI4FaceEEE10deallocateB7v160006ERS3_PS2_m, symObjAddr: 0x3480, symBinAddr: 0x100006188, symSize: 0x34 }
  - { offsetInCU: 0x1BA94, offset: 0x1BA94, size: 0x8, addend: 0x0, symName: __ZNSt3__16vectorI4FaceNS_9allocatorIS1_EEE7__allocB7v160006Ev, symObjAddr: 0x34B4, symBinAddr: 0x1000061BC, symSize: 0x28 }
  - { offsetInCU: 0x1BABA, offset: 0x1BABA, size: 0x8, addend: 0x0, symName: __ZNKSt3__16vectorI4FaceNS_9allocatorIS1_EEE8capacityB7v160006Ev, symObjAddr: 0x34DC, symBinAddr: 0x1000061E4, symSize: 0x40 }
  - { offsetInCU: 0x1BAE0, offset: 0x1BAE0, size: 0x8, addend: 0x0, symName: __ZNKSt3__16vectorI4FaceNS_9allocatorIS1_EEE31__annotate_contiguous_containerB7v160006EPKvS6_S6_S6_, symObjAddr: 0x351C, symBinAddr: 0x100006224, symSize: 0x20 }
  - { offsetInCU: 0x1BB32, offset: 0x1BB32, size: 0x8, addend: 0x0, symName: __ZNKSt3__16vectorI4FaceNS_9allocatorIS1_EEE4dataB7v160006Ev, symObjAddr: 0x353C, symBinAddr: 0x100006244, symSize: 0x28 }
  - { offsetInCU: 0x1BB58, offset: 0x1BB58, size: 0x8, addend: 0x0, symName: __ZNSt3__16vectorI4FaceNS_9allocatorIS1_EEE22__base_destruct_at_endB7v160006EPS1_, symObjAddr: 0x3578, symBinAddr: 0x100006280, symSize: 0x8C }
  - { offsetInCU: 0x1BB9C, offset: 0x1BB9C, size: 0x8, addend: 0x0, symName: __ZNSt3__116allocator_traitsINS_9allocatorI4FaceEEE7destroyB7v160006IS2_vEEvRS3_PT_, symObjAddr: 0x3604, symBinAddr: 0x10000630C, symSize: 0x2C }
  - { offsetInCU: 0x1BBD9, offset: 0x1BBD9, size: 0x8, addend: 0x0, symName: __ZNSt3__19allocatorI4FaceE7destroyB7v160006EPS1_, symObjAddr: 0x3630, symBinAddr: 0x100006338, symSize: 0x14 }
  - { offsetInCU: 0x1BC0D, offset: 0x1BC0D, size: 0x8, addend: 0x0, symName: __ZNSt3__19allocatorI4FaceE10deallocateB7v160006EPS1_m, symObjAddr: 0x3644, symBinAddr: 0x10000634C, symSize: 0x44 }
  - { offsetInCU: 0x1BC4F, offset: 0x1BC4F, size: 0x8, addend: 0x0, symName: __ZNSt3__117__compressed_pairIP4FaceNS_9allocatorIS1_EEE6secondB7v160006Ev, symObjAddr: 0x3688, symBinAddr: 0x100006390, symSize: 0x24 }
  - { offsetInCU: 0x1BC75, offset: 0x1BC75, size: 0x8, addend: 0x0, symName: __ZNSt3__122__compressed_pair_elemINS_9allocatorI4FaceEELi1ELb1EE5__getB7v160006Ev, symObjAddr: 0x36AC, symBinAddr: 0x1000063B4, symSize: 0x14 }
  - { offsetInCU: 0x1BC9B, offset: 0x1BC9B, size: 0x8, addend: 0x0, symName: __ZNKSt3__16vectorI4FaceNS_9allocatorIS1_EEE9__end_capB7v160006Ev, symObjAddr: 0x36C0, symBinAddr: 0x1000063C8, symSize: 0x28 }
  - { offsetInCU: 0x1BCC1, offset: 0x1BCC1, size: 0x8, addend: 0x0, symName: __ZNKSt3__117__compressed_pairIP4FaceNS_9allocatorIS1_EEE5firstB7v160006Ev, symObjAddr: 0x36E8, symBinAddr: 0x1000063F0, symSize: 0x24 }
  - { offsetInCU: 0x1BCE7, offset: 0x1BCE7, size: 0x8, addend: 0x0, symName: __ZNKSt3__122__compressed_pair_elemIP4FaceLi0ELb0EE5__getB7v160006Ev, symObjAddr: 0x370C, symBinAddr: 0x100006414, symSize: 0x14 }
  - { offsetInCU: 0x1BD0D, offset: 0x1BD0D, size: 0x8, addend: 0x0, symName: __ZNSt3__19basic_iosIcNS_11char_traitsIcEEEC2B7v160006Ev, symObjAddr: 0x3720, symBinAddr: 0x100006428, symSize: 0x44 }
  - { offsetInCU: 0x1BD37, offset: 0x1BD37, size: 0x8, addend: 0x0, symName: __ZNSt3__113basic_istreamIcNS_11char_traitsIcEEEC2B7v160006EPNS_15basic_streambufIcS2_EE, symObjAddr: 0x3764, symBinAddr: 0x10000646C, symSize: 0x64 }
  - { offsetInCU: 0x1BD7C, offset: 0x1BD7C, size: 0x8, addend: 0x0, symName: __ZNSt3__19basic_iosIcNS_11char_traitsIcEEE8setstateB7v160006Ej, symObjAddr: 0x37C8, symBinAddr: 0x1000064D0, symSize: 0x2C }
  - { offsetInCU: 0x1BDB1, offset: 0x1BDB1, size: 0x8, addend: 0x0, symName: __ZNSt3__18ios_baseC2B7v160006Ev, symObjAddr: 0x37F4, symBinAddr: 0x1000064FC, symSize: 0x24 }
  - { offsetInCU: 0x1BDDB, offset: 0x1BDDB, size: 0x8, addend: 0x0, symName: __ZNSt3__19basic_iosIcNS_11char_traitsIcEEE4initB7v160006EPNS_15basic_streambufIcS2_EE, symObjAddr: 0x3818, symBinAddr: 0x100006520, symSize: 0x44 }
  - { offsetInCU: 0x1BE12, offset: 0x1BE12, size: 0x8, addend: 0x0, symName: __ZNSt3__111char_traitsIcE3eofEv, symObjAddr: 0x385C, symBinAddr: 0x100006564, symSize: 0x8 }
  - { offsetInCU: 0x1BE26, offset: 0x1BE26, size: 0x8, addend: 0x0, symName: __ZNSt3__18ios_base8setstateB7v160006Ej, symObjAddr: 0x3864, symBinAddr: 0x10000656C, symSize: 0x34 }
  - { offsetInCU: 0x1BE5D, offset: 0x1BE5D, size: 0x8, addend: 0x0, symName: __ZNKSt3__113basic_filebufIcNS_11char_traitsIcEEE7is_openEv, symObjAddr: 0x3898, symBinAddr: 0x1000065A0, symSize: 0x24 }
  - { offsetInCU: 0x1BE85, offset: 0x1BE85, size: 0x8, addend: 0x0, symName: __ZNSt3__111char_traitsIcE6lengthEPKc, symObjAddr: 0x3AA8, symBinAddr: 0x1000067B0, symSize: 0x34 }
  - { offsetInCU: 0x1BEC6, offset: 0x1BEC6, size: 0x8, addend: 0x0, symName: __ZNKSt3__113basic_ostreamIcNS_11char_traitsIcEEE6sentrycvbB7v160006Ev, symObjAddr: 0x3ADC, symBinAddr: 0x1000067E4, symSize: 0x1C }
  - { offsetInCU: 0x1BEEC, offset: 0x1BEEC, size: 0x8, addend: 0x0, symName: __ZNSt3__119ostreambuf_iteratorIcNS_11char_traitsIcEEEC1B7v160006ERNS_13basic_ostreamIcS2_EE, symObjAddr: 0x3D38, symBinAddr: 0x100006A40, symSize: 0x34 }
  - { offsetInCU: 0x1BF24, offset: 0x1BF24, size: 0x8, addend: 0x0, symName: __ZNKSt3__18ios_base5flagsB7v160006Ev, symObjAddr: 0x3D6C, symBinAddr: 0x100006A74, symSize: 0x18 }
  - { offsetInCU: 0x1BF4C, offset: 0x1BF4C, size: 0x8, addend: 0x0, symName: __ZNKSt3__19basic_iosIcNS_11char_traitsIcEEE4fillB7v160006Ev, symObjAddr: 0x3D84, symBinAddr: 0x100006A8C, symSize: 0x64 }
  - { offsetInCU: 0x1BF74, offset: 0x1BF74, size: 0x8, addend: 0x0, symName: __ZNKSt3__119ostreambuf_iteratorIcNS_11char_traitsIcEEE6failedB7v160006Ev, symObjAddr: 0x3DE8, symBinAddr: 0x100006AF0, symSize: 0x24 }
  - { offsetInCU: 0x1BF9A, offset: 0x1BF9A, size: 0x8, addend: 0x0, symName: __ZNKSt3__18ios_base5widthB7v160006Ev, symObjAddr: 0x3E0C, symBinAddr: 0x100006B14, symSize: 0x18 }
  - { offsetInCU: 0x1BFC2, offset: 0x1BFC2, size: 0x8, addend: 0x0, symName: __ZNSt3__115basic_streambufIcNS_11char_traitsIcEEE5sputnB7v160006EPKcl, symObjAddr: 0x3E24, symBinAddr: 0x100006B2C, symSize: 0x3C }
  - { offsetInCU: 0x1C004, offset: 0x1C004, size: 0x8, addend: 0x0, symName: __ZNSt3__112basic_stringIcNS_11char_traitsIcEENS_9allocatorIcEEEC1B7v160006Emc, symObjAddr: 0x3E60, symBinAddr: 0x100006B68, symSize: 0x3C }
  - { offsetInCU: 0x1C04C, offset: 0x1C04C, size: 0x8, addend: 0x0, symName: __ZNSt3__112basic_stringIcNS_11char_traitsIcEENS_9allocatorIcEEE4dataB7v160006Ev, symObjAddr: 0x3E9C, symBinAddr: 0x100006BA4, symSize: 0x28 }
  - { offsetInCU: 0x1C072, offset: 0x1C072, size: 0x8, addend: 0x0, symName: __ZNSt3__18ios_base5widthB7v160006El, symObjAddr: 0x3EC4, symBinAddr: 0x100006BCC, symSize: 0x2C }
  - { offsetInCU: 0x1C0B8, offset: 0x1C0B8, size: 0x8, addend: 0x0, symName: __ZNSt3__112basic_stringIcNS_11char_traitsIcEENS_9allocatorIcEEEC2B7v160006Emc, symObjAddr: 0x3EF0, symBinAddr: 0x100006BF8, symSize: 0x54 }
  - { offsetInCU: 0x1C100, offset: 0x1C100, size: 0x8, addend: 0x0, symName: __ZNSt3__112basic_stringIcNS_11char_traitsIcEENS_9allocatorIcEEE13__get_pointerB7v160006Ev, symObjAddr: 0x3F58, symBinAddr: 0x100006C60, symSize: 0x54 }
  - { offsetInCU: 0x1C126, offset: 0x1C126, size: 0x8, addend: 0x0, symName: __ZNSt3__112basic_stringIcNS_11char_traitsIcEENS_9allocatorIcEEE18__get_long_pointerB7v160006Ev, symObjAddr: 0x3FAC, symBinAddr: 0x100006CB4, symSize: 0x28 }
  - { offsetInCU: 0x1C14C, offset: 0x1C14C, size: 0x8, addend: 0x0, symName: __ZNSt3__112basic_stringIcNS_11char_traitsIcEENS_9allocatorIcEEE19__get_short_pointerB7v160006Ev, symObjAddr: 0x3FD4, symBinAddr: 0x100006CDC, symSize: 0x28 }
  - { offsetInCU: 0x1C172, offset: 0x1C172, size: 0x8, addend: 0x0, symName: __ZNSt3__114pointer_traitsIPcE10pointer_toB7v160006ERc, symObjAddr: 0x3FFC, symBinAddr: 0x100006D04, symSize: 0x14 }
  - { offsetInCU: 0x1C195, offset: 0x1C195, size: 0x8, addend: 0x0, symName: __ZNSt3__119ostreambuf_iteratorIcNS_11char_traitsIcEEEC2B7v160006ERNS_13basic_ostreamIcS2_EE, symObjAddr: 0x4010, symBinAddr: 0x100006D18, symSize: 0x54 }
  - { offsetInCU: 0x1C1CD, offset: 0x1C1CD, size: 0x8, addend: 0x0, symName: __ZNKSt3__19basic_iosIcNS_11char_traitsIcEEE5rdbufB7v160006Ev, symObjAddr: 0x4064, symBinAddr: 0x100006D6C, symSize: 0x24 }
  - { offsetInCU: 0x1C1F5, offset: 0x1C1F5, size: 0x8, addend: 0x0, symName: __ZNKSt3__18ios_base5rdbufB7v160006Ev, symObjAddr: 0x4088, symBinAddr: 0x100006D90, symSize: 0x18 }
  - { offsetInCU: 0x1C21B, offset: 0x1C21B, size: 0x8, addend: 0x0, symName: __ZNSt3__111char_traitsIcE11eq_int_typeEii, symObjAddr: 0x40A0, symBinAddr: 0x100006DA8, symSize: 0x28 }
  - { offsetInCU: 0x1C24C, offset: 0x1C24C, size: 0x8, addend: 0x0, symName: __ZNKSt3__19basic_iosIcNS_11char_traitsIcEEE5widenB7v160006Ec, symObjAddr: 0x40C8, symBinAddr: 0x100006DD0, symSize: 0x84 }
  - { offsetInCU: 0x1C2BA, offset: 0x1C2BA, size: 0x8, addend: 0x0, symName: __ZNKSt3__15ctypeIcE5widenB7v160006Ec, symObjAddr: 0x4178, symBinAddr: 0x100006E80, symSize: 0x38 }
  - { offsetInCU: 0x1C30D, offset: 0x1C30D, size: 0x8, addend: 0x0, symName: __ZNKSt3__113basic_istreamIcNS_11char_traitsIcEEE6sentrycvbB7v160006Ev, symObjAddr: 0x440C, symBinAddr: 0x100007114, symSize: 0x1C }
  - { offsetInCU: 0x1C333, offset: 0x1C333, size: 0x8, addend: 0x0, symName: __ZNSt3__112basic_stringIcNS_11char_traitsIcEENS_9allocatorIcEEE5clearB7v160006Ev, symObjAddr: 0x4428, symBinAddr: 0x100007130, symSize: 0x88 }
  - { offsetInCU: 0x1C35B, offset: 0x1C35B, size: 0x8, addend: 0x0, symName: __ZNSt3__115basic_streambufIcNS_11char_traitsIcEEE6sbumpcB7v160006Ev, symObjAddr: 0x44B0, symBinAddr: 0x1000071B8, symSize: 0x78 }
  - { offsetInCU: 0x1C381, offset: 0x1C381, size: 0x8, addend: 0x0, symName: __ZNSt3__111char_traitsIcE12to_char_typeEi, symObjAddr: 0x4528, symBinAddr: 0x100007230, symSize: 0x18 }
  - { offsetInCU: 0x1C3A4, offset: 0x1C3A4, size: 0x8, addend: 0x0, symName: __ZNSt3__111char_traitsIcE2eqEcc, symObjAddr: 0x4540, symBinAddr: 0x100007248, symSize: 0x28 }
  - { offsetInCU: 0x1C3D5, offset: 0x1C3D5, size: 0x8, addend: 0x0, symName: __ZNKSt3__112basic_stringIcNS_11char_traitsIcEENS_9allocatorIcEEE4sizeB7v160006Ev, symObjAddr: 0x4568, symBinAddr: 0x100007270, symSize: 0x54 }
  - { offsetInCU: 0x1C3FB, offset: 0x1C3FB, size: 0x8, addend: 0x0, symName: __ZNKSt3__112basic_stringIcNS_11char_traitsIcEENS_9allocatorIcEEE8max_sizeB7v160006Ev, symObjAddr: 0x45BC, symBinAddr: 0x1000072C4, symSize: 0xAC }
  - { offsetInCU: 0x1C44D, offset: 0x1C44D, size: 0x8, addend: 0x0, symName: __ZNSt3__18ios_base18__setstate_nothrowB7v160006Ej, symObjAddr: 0x4668, symBinAddr: 0x100007370, symSize: 0x64 }
  - { offsetInCU: 0x1C482, offset: 0x1C482, size: 0x8, addend: 0x0, symName: __ZNKSt3__19basic_iosIcNS_11char_traitsIcEEE10exceptionsB7v160006Ev, symObjAddr: 0x46CC, symBinAddr: 0x1000073D4, symSize: 0x24 }
  - { offsetInCU: 0x1C4A8, offset: 0x1C4A8, size: 0x8, addend: 0x0, symName: __ZNSt3__111char_traitsIcE6assignERcRKc, symObjAddr: 0x4700, symBinAddr: 0x100007408, symSize: 0x24 }
  - { offsetInCU: 0x1C4D9, offset: 0x1C4D9, size: 0x8, addend: 0x0, symName: __ZNSt3__112basic_stringIcNS_11char_traitsIcEENS_9allocatorIcEEE15__set_long_sizeB7v160006Em, symObjAddr: 0x4724, symBinAddr: 0x10000742C, symSize: 0x38 }
  - { offsetInCU: 0x1C50E, offset: 0x1C50E, size: 0x8, addend: 0x0, symName: __ZNSt3__112basic_stringIcNS_11char_traitsIcEENS_9allocatorIcEEE16__set_short_sizeB7v160006Em, symObjAddr: 0x475C, symBinAddr: 0x100007464, symSize: 0x78 }
  - { offsetInCU: 0x1C543, offset: 0x1C543, size: 0x8, addend: 0x0, symName: __ZNSt3__111char_traitsIcE11to_int_typeEc, symObjAddr: 0x47D4, symBinAddr: 0x1000074DC, symSize: 0x14 }
  - { offsetInCU: 0x1C566, offset: 0x1C566, size: 0x8, addend: 0x0, symName: __ZNKSt3__112basic_stringIcNS_11char_traitsIcEENS_9allocatorIcEEE15__get_long_sizeB7v160006Ev, symObjAddr: 0x47E8, symBinAddr: 0x1000074F0, symSize: 0x28 }
  - { offsetInCU: 0x1C58C, offset: 0x1C58C, size: 0x8, addend: 0x0, symName: __ZNKSt3__112basic_stringIcNS_11char_traitsIcEENS_9allocatorIcEEE16__get_short_sizeB7v160006Ev, symObjAddr: 0x4810, symBinAddr: 0x100007518, symSize: 0x34 }
  - { offsetInCU: 0x1C5BC, offset: 0x1C5BC, size: 0x8, addend: 0x0, symName: __ZNSt3__116allocator_traitsINS_9allocatorIcEEE8max_sizeB7v160006IS2_vEEmRKS2_, symObjAddr: 0x4844, symBinAddr: 0x10000754C, symSize: 0x24 }
  - { offsetInCU: 0x1C5EA, offset: 0x1C5EA, size: 0x8, addend: 0x0, symName: __ZNKSt3__112basic_stringIcNS_11char_traitsIcEENS_9allocatorIcEEE7__allocB7v160006Ev, symObjAddr: 0x4868, symBinAddr: 0x100007570, symSize: 0x24 }
  - { offsetInCU: 0x1C610, offset: 0x1C610, size: 0x8, addend: 0x0, symName: __ZNSt3__114numeric_limitsImE3maxB7v160006Ev, symObjAddr: 0x488C, symBinAddr: 0x100007594, symSize: 0x14 }
  - { offsetInCU: 0x1C624, offset: 0x1C624, size: 0x8, addend: 0x0, symName: __ZNKSt3__19allocatorIcE8max_sizeB7v160006Ev, symObjAddr: 0x48A0, symBinAddr: 0x1000075A8, symSize: 0x14 }
  - { offsetInCU: 0x1C64A, offset: 0x1C64A, size: 0x8, addend: 0x0, symName: __ZNKSt3__117__compressed_pairINS_12basic_stringIcNS_11char_traitsIcEENS_9allocatorIcEEE5__repES5_E6secondB7v160006Ev, symObjAddr: 0x48B4, symBinAddr: 0x1000075BC, symSize: 0x24 }
  - { offsetInCU: 0x1C670, offset: 0x1C670, size: 0x8, addend: 0x0, symName: __ZNKSt3__122__compressed_pair_elemINS_9allocatorIcEELi1ELb1EE5__getB7v160006Ev, symObjAddr: 0x48D8, symBinAddr: 0x1000075E0, symSize: 0x14 }
  - { offsetInCU: 0x1C696, offset: 0x1C696, size: 0x8, addend: 0x0, symName: __ZNSt3__123__libcpp_numeric_limitsImLb1EE3maxB7v160006Ev, symObjAddr: 0x48EC, symBinAddr: 0x1000075F4, symSize: 0x8 }
  - { offsetInCU: 0x1C6AA, offset: 0x1C6AA, size: 0x8, addend: 0x0, symName: __ZNKSt3__18ios_base10exceptionsB7v160006Ev, symObjAddr: 0x48F4, symBinAddr: 0x1000075FC, symSize: 0x18 }
  - { offsetInCU: 0x1C6D2, offset: 0x1C6D2, size: 0x8, addend: 0x0, symName: __ZNKSt3__19basic_iosIcNS_11char_traitsIcEEE4failB7v160006Ev, symObjAddr: 0x490C, symBinAddr: 0x100007614, symSize: 0x28 }
  - { offsetInCU: 0x1C6F8, offset: 0x1C6F8, size: 0x8, addend: 0x0, symName: __ZNKSt3__18ios_base4failB7v160006Ev, symObjAddr: 0x4934, symBinAddr: 0x10000763C, symSize: 0x28 }
  - { offsetInCU: 0x1C720, offset: 0x1C720, size: 0x8, addend: 0x0, symName: __ZNSt3__19allocatorIcEC1B7v160006Ev, symObjAddr: 0x495C, symBinAddr: 0x100007664, symSize: 0x2C }
  - { offsetInCU: 0x1C74A, offset: 0x1C74A, size: 0x8, addend: 0x0, symName: __ZNSt3__16vectorIN3glm3vecILi3EfLNS1_9qualifierE0EEENS_9allocatorIS4_EEE9__end_capB7v160006Ev, symObjAddr: 0x4988, symBinAddr: 0x100007690, symSize: 0x28 }
  - { offsetInCU: 0x1C770, offset: 0x1C770, size: 0x8, addend: 0x0, symName: __ZNSt3__16vectorIN3glm3vecILi3EfLNS1_9qualifierE0EEENS_9allocatorIS4_EEE22__construct_one_at_endB7v160006IJRKS4_EEEvDpOT_, symObjAddr: 0x49B0, symBinAddr: 0x1000076B8, symSize: 0x90 }
  - { offsetInCU: 0x1C7BF, offset: 0x1C7BF, size: 0x8, addend: 0x0, symName: __ZNSt3__16vectorIN3glm3vecILi3EfLNS1_9qualifierE0EEENS_9allocatorIS4_EEE21__push_back_slow_pathIRKS4_EEvOT_, symObjAddr: 0x4A40, symBinAddr: 0x100007748, symSize: 0xD8 }
  - { offsetInCU: 0x1C81D, offset: 0x1C81D, size: 0x8, addend: 0x0, symName: __ZNSt3__117__compressed_pairIPN3glm3vecILi3EfLNS1_9qualifierE0EEENS_9allocatorIS4_EEE5firstB7v160006Ev, symObjAddr: 0x4B18, symBinAddr: 0x100007820, symSize: 0x24 }
  - { offsetInCU: 0x1C843, offset: 0x1C843, size: 0x8, addend: 0x0, symName: __ZNSt3__122__compressed_pair_elemIPN3glm3vecILi3EfLNS1_9qualifierE0EEELi0ELb0EE5__getB7v160006Ev, symObjAddr: 0x4B3C, symBinAddr: 0x100007844, symSize: 0x14 }
  - { offsetInCU: 0x1C882, offset: 0x1C882, size: 0x8, addend: 0x0, symName: __ZNSt3__16vectorIN3glm3vecILi3EfLNS1_9qualifierE0EEENS_9allocatorIS4_EEE21_ConstructTransactionC1B7v160006ERS7_m, symObjAddr: 0x4B50, symBinAddr: 0x100007858, symSize: 0x3C }
  - { offsetInCU: 0x1C8CA, offset: 0x1C8CA, size: 0x8, addend: 0x0, symName: __ZNSt3__116allocator_traitsINS_9allocatorIN3glm3vecILi3EfLNS2_9qualifierE0EEEEEE9constructB7v160006IS5_JRKS5_EvEEvRS6_PT_DpOT0_, symObjAddr: 0x4B8C, symBinAddr: 0x100007894, symSize: 0x34 }
  - { offsetInCU: 0x1C921, offset: 0x1C921, size: 0x8, addend: 0x0, symName: __ZNSt3__16vectorIN3glm3vecILi3EfLNS1_9qualifierE0EEENS_9allocatorIS4_EEE21_ConstructTransactionD1B7v160006Ev, symObjAddr: 0x4BC0, symBinAddr: 0x1000078C8, symSize: 0x2C }
  - { offsetInCU: 0x1C94B, offset: 0x1C94B, size: 0x8, addend: 0x0, symName: __ZNSt3__16vectorIN3glm3vecILi3EfLNS1_9qualifierE0EEENS_9allocatorIS4_EEE21_ConstructTransactionC2B7v160006ERS7_m, symObjAddr: 0x4BEC, symBinAddr: 0x1000078F4, symSize: 0x4C }
  - { offsetInCU: 0x1C993, offset: 0x1C993, size: 0x8, addend: 0x0, symName: __ZNSt3__19allocatorIN3glm3vecILi3EfLNS1_9qualifierE0EEEE9constructB7v160006IS4_JRKS4_EEEvPT_DpOT0_, symObjAddr: 0x4C38, symBinAddr: 0x100007940, symSize: 0x30 }
  - { offsetInCU: 0x1C9E9, offset: 0x1C9E9, size: 0x8, addend: 0x0, symName: __ZNSt3__16vectorIN3glm3vecILi3EfLNS1_9qualifierE0EEENS_9allocatorIS4_EEE21_ConstructTransactionD2B7v160006Ev, symObjAddr: 0x4C68, symBinAddr: 0x100007970, symSize: 0x20 }
  - { offsetInCU: 0x1CA13, offset: 0x1CA13, size: 0x8, addend: 0x0, symName: __ZNKSt3__16vectorIN3glm3vecILi3EfLNS1_9qualifierE0EEENS_9allocatorIS4_EEE11__recommendB7v160006Em, symObjAddr: 0x4C88, symBinAddr: 0x100007990, symSize: 0xB4 }
  - { offsetInCU: 0x1CA68, offset: 0x1CA68, size: 0x8, addend: 0x0, symName: __ZNSt3__114__split_bufferIN3glm3vecILi3EfLNS1_9qualifierE0EEERNS_9allocatorIS4_EEEC1EmmS7_, symObjAddr: 0x4D3C, symBinAddr: 0x100007A44, symSize: 0x44 }
  - { offsetInCU: 0x1CABE, offset: 0x1CABE, size: 0x8, addend: 0x0, symName: __ZNSt3__114__split_bufferIN3glm3vecILi3EfLNS1_9qualifierE0EEERNS_9allocatorIS4_EEED1Ev, symObjAddr: 0x4E98, symBinAddr: 0x100007BA0, symSize: 0x2C }
  - { offsetInCU: 0x1CAEA, offset: 0x1CAEA, size: 0x8, addend: 0x0, symName: __ZNKSt3__16vectorIN3glm3vecILi3EfLNS1_9qualifierE0EEENS_9allocatorIS4_EEE8max_sizeEv, symObjAddr: 0x4EC4, symBinAddr: 0x100007BCC, symSize: 0x60 }
  - { offsetInCU: 0x1CB12, offset: 0x1CB12, size: 0x8, addend: 0x0, symName: __ZNKSt3__16vectorIN3glm3vecILi3EfLNS1_9qualifierE0EEENS_9allocatorIS4_EEE20__throw_length_errorB7v160006Ev, symObjAddr: 0x4F24, symBinAddr: 0x100007C2C, symSize: 0x1C }
  - { offsetInCU: 0x1CB42, offset: 0x1CB42, size: 0x8, addend: 0x0, symName: __ZNSt3__116allocator_traitsINS_9allocatorIN3glm3vecILi3EfLNS2_9qualifierE0EEEEEE8max_sizeB7v160006IS6_vEEmRKS6_, symObjAddr: 0x4F98, symBinAddr: 0x100007CA0, symSize: 0x24 }
  - { offsetInCU: 0x1CB70, offset: 0x1CB70, size: 0x8, addend: 0x0, symName: __ZNKSt3__16vectorIN3glm3vecILi3EfLNS1_9qualifierE0EEENS_9allocatorIS4_EEE7__allocB7v160006Ev, symObjAddr: 0x4FBC, symBinAddr: 0x100007CC4, symSize: 0x28 }
  - { offsetInCU: 0x1CB96, offset: 0x1CB96, size: 0x8, addend: 0x0, symName: __ZNSt3__114numeric_limitsIlE3maxB7v160006Ev, symObjAddr: 0x4FE4, symBinAddr: 0x100007CEC, symSize: 0x14 }
  - { offsetInCU: 0x1CBBE, offset: 0x1CBBE, size: 0x8, addend: 0x0, symName: __ZNKSt3__16__lessImmEclB7v160006ERKmS3_, symObjAddr: 0x504C, symBinAddr: 0x100007D54, symSize: 0x34 }
  - { offsetInCU: 0x1CC00, offset: 0x1CC00, size: 0x8, addend: 0x0, symName: __ZNKSt3__19allocatorIN3glm3vecILi3EfLNS1_9qualifierE0EEEE8max_sizeB7v160006Ev, symObjAddr: 0x5080, symBinAddr: 0x100007D88, symSize: 0x18 }
  - { offsetInCU: 0x1CC26, offset: 0x1CC26, size: 0x8, addend: 0x0, symName: __ZNKSt3__117__compressed_pairIPN3glm3vecILi3EfLNS1_9qualifierE0EEENS_9allocatorIS4_EEE6secondB7v160006Ev, symObjAddr: 0x5098, symBinAddr: 0x100007DA0, symSize: 0x24 }
  - { offsetInCU: 0x1CC4C, offset: 0x1CC4C, size: 0x8, addend: 0x0, symName: __ZNKSt3__122__compressed_pair_elemINS_9allocatorIN3glm3vecILi3EfLNS2_9qualifierE0EEEEELi1ELb1EE5__getB7v160006Ev, symObjAddr: 0x50BC, symBinAddr: 0x100007DC4, symSize: 0x14 }
  - { offsetInCU: 0x1CC72, offset: 0x1CC72, size: 0x8, addend: 0x0, symName: __ZNSt3__123__libcpp_numeric_limitsIlLb1EE3maxB7v160006Ev, symObjAddr: 0x50D0, symBinAddr: 0x100007DD8, symSize: 0x8 }
  - { offsetInCU: 0x1CC86, offset: 0x1CC86, size: 0x8, addend: 0x0, symName: __ZNSt12length_errorC1B7v160006EPKc, symObjAddr: 0x513C, symBinAddr: 0x100007E44, symSize: 0x34 }
  - { offsetInCU: 0x1CCBE, offset: 0x1CCBE, size: 0x8, addend: 0x0, symName: __ZNSt12length_errorC2B7v160006EPKc, symObjAddr: 0x5170, symBinAddr: 0x100007E78, symSize: 0x4C }
  - { offsetInCU: 0x1CCF6, offset: 0x1CCF6, size: 0x8, addend: 0x0, symName: __ZNSt3__114__split_bufferIN3glm3vecILi3EfLNS1_9qualifierE0EEERNS_9allocatorIS4_EEEC2EmmS7_, symObjAddr: 0x5210, symBinAddr: 0x100007F18, symSize: 0xE0 }
  - { offsetInCU: 0x1CD69, offset: 0x1CD69, size: 0x8, addend: 0x0, symName: __ZNSt3__117__compressed_pairIPN3glm3vecILi3EfLNS1_9qualifierE0EEERNS_9allocatorIS4_EEEC1B7v160006IDnS8_EEOT_OT0_, symObjAddr: 0x52F0, symBinAddr: 0x100007FF8, symSize: 0x3C }
  - { offsetInCU: 0x1CDC1, offset: 0x1CDC1, size: 0x8, addend: 0x0, symName: __ZNSt3__114__split_bufferIN3glm3vecILi3EfLNS1_9qualifierE0EEERNS_9allocatorIS4_EEE7__allocB7v160006Ev, symObjAddr: 0x536C, symBinAddr: 0x100008074, symSize: 0x28 }
  - { offsetInCU: 0x1CDE7, offset: 0x1CDE7, size: 0x8, addend: 0x0, symName: __ZNSt3__114__split_bufferIN3glm3vecILi3EfLNS1_9qualifierE0EEERNS_9allocatorIS4_EEE9__end_capB7v160006Ev, symObjAddr: 0x5394, symBinAddr: 0x10000809C, symSize: 0x28 }
  - { offsetInCU: 0x1CE0D, offset: 0x1CE0D, size: 0x8, addend: 0x0, symName: __ZNSt3__117__compressed_pairIPN3glm3vecILi3EfLNS1_9qualifierE0EEERNS_9allocatorIS4_EEEC2B7v160006IDnS8_EEOT_OT0_, symObjAddr: 0x53BC, symBinAddr: 0x1000080C4, symSize: 0x48 }
  - { offsetInCU: 0x1CE65, offset: 0x1CE65, size: 0x8, addend: 0x0, symName: __ZNSt3__122__compressed_pair_elemIRNS_9allocatorIN3glm3vecILi3EfLNS2_9qualifierE0EEEEELi1ELb0EEC2B7v160006IS7_vEEOT_, symObjAddr: 0x5404, symBinAddr: 0x10000810C, symSize: 0x20 }
  - { offsetInCU: 0x1CEA7, offset: 0x1CEA7, size: 0x8, addend: 0x0, symName: __ZNSt3__19allocatorIN3glm3vecILi3EfLNS1_9qualifierE0EEEE8allocateB7v160006Em, symObjAddr: 0x5424, symBinAddr: 0x10000812C, symSize: 0x5C }
  - { offsetInCU: 0x1CEDB, offset: 0x1CEDB, size: 0x8, addend: 0x0, symName: __ZNSt3__117__compressed_pairIPN3glm3vecILi3EfLNS1_9qualifierE0EEERNS_9allocatorIS4_EEE6secondB7v160006Ev, symObjAddr: 0x5564, symBinAddr: 0x10000826C, symSize: 0x28 }
  - { offsetInCU: 0x1CF01, offset: 0x1CF01, size: 0x8, addend: 0x0, symName: __ZNSt3__122__compressed_pair_elemIRNS_9allocatorIN3glm3vecILi3EfLNS2_9qualifierE0EEEEELi1ELb0EE5__getB7v160006Ev, symObjAddr: 0x558C, symBinAddr: 0x100008294, symSize: 0x18 }
  - { offsetInCU: 0x1CF27, offset: 0x1CF27, size: 0x8, addend: 0x0, symName: __ZNSt3__117__compressed_pairIPN3glm3vecILi3EfLNS1_9qualifierE0EEERNS_9allocatorIS4_EEE5firstB7v160006Ev, symObjAddr: 0x55A4, symBinAddr: 0x1000082AC, symSize: 0x24 }
  - { offsetInCU: 0x1CF4D, offset: 0x1CF4D, size: 0x8, addend: 0x0, symName: __ZNSt3__116reverse_iteratorIPN3glm3vecILi3EfLNS1_9qualifierE0EEEEC1B7v160006ES5_, symObjAddr: 0x5640, symBinAddr: 0x100008348, symSize: 0x34 }
  - { offsetInCU: 0x1CF85, offset: 0x1CF85, size: 0x8, addend: 0x0, symName: __ZNKSt3__116reverse_iteratorIPN3glm3vecILi3EfLNS1_9qualifierE0EEEE4baseB7v160006Ev, symObjAddr: 0x5674, symBinAddr: 0x10000837C, symSize: 0x18 }
  - { offsetInCU: 0x1CFAB, offset: 0x1CFAB, size: 0x8, addend: 0x0, symName: __ZNKSt3__16vectorIN3glm3vecILi3EfLNS1_9qualifierE0EEENS_9allocatorIS4_EEE14__annotate_newB7v160006Em, symObjAddr: 0x56C8, symBinAddr: 0x1000083D0, symSize: 0xC8 }
  - { offsetInCU: 0x1D004, offset: 0x1D004, size: 0x8, addend: 0x0, symName: __ZNKSt3__111__move_loopINS_17_ClassicAlgPolicyEEclB7v160006INS_16reverse_iteratorIPN3glm3vecILi3EfLNS5_9qualifierE0EEEEESA_SA_EENS_4pairIT_T1_EESC_T0_SD_, symObjAddr: 0x5A90, symBinAddr: 0x100008798, symSize: 0xA8 }
  - { offsetInCU: 0x1D075, offset: 0x1D075, size: 0x8, addend: 0x0, symName: __ZNSt3__18_IterOpsINS_17_ClassicAlgPolicyEE11__iter_moveB7v160006IRNS_16reverse_iteratorIPN3glm3vecILi3EfLNS5_9qualifierE0EEEEEEENS_9enable_ifIXsr12is_referenceIDTdeclsr3stdE7declvalIRT_EEEEE5valueEDTclsr3stdE4movedeclsr3stdE7declvalISE_EEEEE4typeEOSD_, symObjAddr: 0x5CCC, symBinAddr: 0x1000089D4, symSize: 0x28 }
  - { offsetInCU: 0x1D0A1, offset: 0x1D0A1, size: 0x8, addend: 0x0, symName: __ZNKSt3__116reverse_iteratorIPN3glm3vecILi3EfLNS1_9qualifierE0EEEEdeB7v160006Ev, symObjAddr: 0x5CF4, symBinAddr: 0x1000089FC, symSize: 0x28 }
  - { offsetInCU: 0x1D0D5, offset: 0x1D0D5, size: 0x8, addend: 0x0, symName: __ZNSt3__116reverse_iteratorIPN3glm3vecILi3EfLNS1_9qualifierE0EEEEppB7v160006Ev, symObjAddr: 0x5D1C, symBinAddr: 0x100008A24, symSize: 0x20 }
  - { offsetInCU: 0x1D0FB, offset: 0x1D0FB, size: 0x8, addend: 0x0, symName: __ZNSt3__18_IterOpsINS_17_ClassicAlgPolicyEE25__validate_iter_referenceB7v160006IRNS_16reverse_iteratorIPN3glm3vecILi3EfLNS5_9qualifierE0EEEEEEEvv, symObjAddr: 0x5D3C, symBinAddr: 0x100008A44, symSize: 0x4 }
  - { offsetInCU: 0x1D119, offset: 0x1D119, size: 0x8, addend: 0x0, symName: __ZNSt3__118__unwrap_iter_implINS_16reverse_iteratorIPN3glm3vecILi3EfLNS2_9qualifierE0EEEEELb0EE8__unwrapB7v160006ES7_, symObjAddr: 0x5D40, symBinAddr: 0x100008A48, symSize: 0x24 }
  - { offsetInCU: 0x1D142, offset: 0x1D142, size: 0x8, addend: 0x0, symName: __ZNSt3__14pairINS_16reverse_iteratorIPN3glm3vecILi3EfLNS2_9qualifierE0EEEEES7_EC1B7v160006IS7_S7_LPv0EEEOT_OT0_, symObjAddr: 0x5D64, symBinAddr: 0x100008A6C, symSize: 0x3C }
  - { offsetInCU: 0x1D1A0, offset: 0x1D1A0, size: 0x8, addend: 0x0, symName: __ZNSt3__14pairINS_16reverse_iteratorIPN3glm3vecILi3EfLNS2_9qualifierE0EEEEES7_EC2B7v160006IS7_S7_LPv0EEEOT_OT0_, symObjAddr: 0x5DA0, symBinAddr: 0x100008AA8, symSize: 0x34 }
  - { offsetInCU: 0x1D1FE, offset: 0x1D1FE, size: 0x8, addend: 0x0, symName: __ZNSt3__118__unwrap_iter_implINS_16reverse_iteratorIPN3glm3vecILi3EfLNS2_9qualifierE0EEEEELb0EE8__rewrapB7v160006ES7_S7_, symObjAddr: 0x5DD4, symBinAddr: 0x100008ADC, symSize: 0x2C }
  - { offsetInCU: 0x1D22C, offset: 0x1D22C, size: 0x8, addend: 0x0, symName: __ZNSt3__116reverse_iteratorIPN3glm3vecILi3EfLNS1_9qualifierE0EEEEC2B7v160006ES5_, symObjAddr: 0x5E00, symBinAddr: 0x100008B08, symSize: 0x28 }
  - { offsetInCU: 0x1D264, offset: 0x1D264, size: 0x8, addend: 0x0, symName: __ZNSt3__114__split_bufferIN3glm3vecILi3EfLNS1_9qualifierE0EEERNS_9allocatorIS4_EEED2Ev, symObjAddr: 0x5E28, symBinAddr: 0x100008B30, symSize: 0x8C }
  - { offsetInCU: 0x1D290, offset: 0x1D290, size: 0x8, addend: 0x0, symName: __ZNSt3__114__split_bufferIN3glm3vecILi3EfLNS1_9qualifierE0EEERNS_9allocatorIS4_EEE5clearB7v160006Ev, symObjAddr: 0x5EB4, symBinAddr: 0x100008BBC, symSize: 0x28 }
  - { offsetInCU: 0x1D2B6, offset: 0x1D2B6, size: 0x8, addend: 0x0, symName: __ZNKSt3__114__split_bufferIN3glm3vecILi3EfLNS1_9qualifierE0EEERNS_9allocatorIS4_EEE8capacityB7v160006Ev, symObjAddr: 0x5EDC, symBinAddr: 0x100008BE4, symSize: 0x40 }
  - { offsetInCU: 0x1D2DC, offset: 0x1D2DC, size: 0x8, addend: 0x0, symName: __ZNSt3__114__split_bufferIN3glm3vecILi3EfLNS1_9qualifierE0EEERNS_9allocatorIS4_EEE17__destruct_at_endB7v160006EPS4_, symObjAddr: 0x5F1C, symBinAddr: 0x100008C24, symSize: 0x2C }
  - { offsetInCU: 0x1D310, offset: 0x1D310, size: 0x8, addend: 0x0, symName: __ZNSt3__114__split_bufferIN3glm3vecILi3EfLNS1_9qualifierE0EEERNS_9allocatorIS4_EEE17__destruct_at_endB7v160006EPS4_NS_17integral_constantIbLb0EEE, symObjAddr: 0x5F48, symBinAddr: 0x100008C50, symSize: 0x80 }
  - { offsetInCU: 0x1D351, offset: 0x1D351, size: 0x8, addend: 0x0, symName: __ZNKSt3__114__split_bufferIN3glm3vecILi3EfLNS1_9qualifierE0EEERNS_9allocatorIS4_EEE9__end_capB7v160006Ev, symObjAddr: 0x5FC8, symBinAddr: 0x100008CD0, symSize: 0x28 }
  - { offsetInCU: 0x1D377, offset: 0x1D377, size: 0x8, addend: 0x0, symName: __ZNKSt3__117__compressed_pairIPN3glm3vecILi3EfLNS1_9qualifierE0EEERNS_9allocatorIS4_EEE5firstB7v160006Ev, symObjAddr: 0x5FF0, symBinAddr: 0x100008CF8, symSize: 0x24 }
  - { offsetInCU: 0x1D39D, offset: 0x1D39D, size: 0x8, addend: 0x0, symName: __ZNSt3__16vectorIN3glm3vecILi2EfLNS1_9qualifierE0EEENS_9allocatorIS4_EEE9__end_capB7v160006Ev, symObjAddr: 0x6014, symBinAddr: 0x100008D1C, symSize: 0x28 }
  - { offsetInCU: 0x1D3C3, offset: 0x1D3C3, size: 0x8, addend: 0x0, symName: __ZNSt3__16vectorIN3glm3vecILi2EfLNS1_9qualifierE0EEENS_9allocatorIS4_EEE22__construct_one_at_endB7v160006IJRKS4_EEEvDpOT_, symObjAddr: 0x603C, symBinAddr: 0x100008D44, symSize: 0x90 }
  - { offsetInCU: 0x1D412, offset: 0x1D412, size: 0x8, addend: 0x0, symName: __ZNSt3__16vectorIN3glm3vecILi2EfLNS1_9qualifierE0EEENS_9allocatorIS4_EEE21__push_back_slow_pathIRKS4_EEvOT_, symObjAddr: 0x60CC, symBinAddr: 0x100008DD4, symSize: 0xD8 }
  - { offsetInCU: 0x1D470, offset: 0x1D470, size: 0x8, addend: 0x0, symName: __ZNSt3__117__compressed_pairIPN3glm3vecILi2EfLNS1_9qualifierE0EEENS_9allocatorIS4_EEE5firstB7v160006Ev, symObjAddr: 0x61A4, symBinAddr: 0x100008EAC, symSize: 0x24 }
  - { offsetInCU: 0x1D496, offset: 0x1D496, size: 0x8, addend: 0x0, symName: __ZNSt3__122__compressed_pair_elemIPN3glm3vecILi2EfLNS1_9qualifierE0EEELi0ELb0EE5__getB7v160006Ev, symObjAddr: 0x61C8, symBinAddr: 0x100008ED0, symSize: 0x14 }
  - { offsetInCU: 0x1D4D5, offset: 0x1D4D5, size: 0x8, addend: 0x0, symName: __ZNSt3__16vectorIN3glm3vecILi2EfLNS1_9qualifierE0EEENS_9allocatorIS4_EEE21_ConstructTransactionC1B7v160006ERS7_m, symObjAddr: 0x61DC, symBinAddr: 0x100008EE4, symSize: 0x3C }
  - { offsetInCU: 0x1D51D, offset: 0x1D51D, size: 0x8, addend: 0x0, symName: __ZNSt3__116allocator_traitsINS_9allocatorIN3glm3vecILi2EfLNS2_9qualifierE0EEEEEE9constructB7v160006IS5_JRKS5_EvEEvRS6_PT_DpOT0_, symObjAddr: 0x6218, symBinAddr: 0x100008F20, symSize: 0x34 }
  - { offsetInCU: 0x1D574, offset: 0x1D574, size: 0x8, addend: 0x0, symName: __ZNSt3__16vectorIN3glm3vecILi2EfLNS1_9qualifierE0EEENS_9allocatorIS4_EEE21_ConstructTransactionD1B7v160006Ev, symObjAddr: 0x624C, symBinAddr: 0x100008F54, symSize: 0x2C }
  - { offsetInCU: 0x1D59E, offset: 0x1D59E, size: 0x8, addend: 0x0, symName: __ZNSt3__16vectorIN3glm3vecILi2EfLNS1_9qualifierE0EEENS_9allocatorIS4_EEE21_ConstructTransactionC2B7v160006ERS7_m, symObjAddr: 0x6278, symBinAddr: 0x100008F80, symSize: 0x44 }
  - { offsetInCU: 0x1D5E6, offset: 0x1D5E6, size: 0x8, addend: 0x0, symName: __ZNSt3__19allocatorIN3glm3vecILi2EfLNS1_9qualifierE0EEEE9constructB7v160006IS4_JRKS4_EEEvPT_DpOT0_, symObjAddr: 0x62BC, symBinAddr: 0x100008FC4, symSize: 0x28 }
  - { offsetInCU: 0x1D63C, offset: 0x1D63C, size: 0x8, addend: 0x0, symName: __ZNSt3__16vectorIN3glm3vecILi2EfLNS1_9qualifierE0EEENS_9allocatorIS4_EEE21_ConstructTransactionD2B7v160006Ev, symObjAddr: 0x62E4, symBinAddr: 0x100008FEC, symSize: 0x20 }
  - { offsetInCU: 0x1D666, offset: 0x1D666, size: 0x8, addend: 0x0, symName: __ZNKSt3__16vectorIN3glm3vecILi2EfLNS1_9qualifierE0EEENS_9allocatorIS4_EEE11__recommendB7v160006Em, symObjAddr: 0x6304, symBinAddr: 0x10000900C, symSize: 0xB4 }
  - { offsetInCU: 0x1D6BB, offset: 0x1D6BB, size: 0x8, addend: 0x0, symName: __ZNSt3__114__split_bufferIN3glm3vecILi2EfLNS1_9qualifierE0EEERNS_9allocatorIS4_EEEC1EmmS7_, symObjAddr: 0x63B8, symBinAddr: 0x1000090C0, symSize: 0x44 }
  - { offsetInCU: 0x1D711, offset: 0x1D711, size: 0x8, addend: 0x0, symName: __ZNSt3__114__split_bufferIN3glm3vecILi2EfLNS1_9qualifierE0EEERNS_9allocatorIS4_EEED1Ev, symObjAddr: 0x6514, symBinAddr: 0x10000921C, symSize: 0x2C }
  - { offsetInCU: 0x1D73D, offset: 0x1D73D, size: 0x8, addend: 0x0, symName: __ZNKSt3__16vectorIN3glm3vecILi2EfLNS1_9qualifierE0EEENS_9allocatorIS4_EEE8max_sizeEv, symObjAddr: 0x6540, symBinAddr: 0x100009248, symSize: 0x60 }
  - { offsetInCU: 0x1D765, offset: 0x1D765, size: 0x8, addend: 0x0, symName: __ZNKSt3__16vectorIN3glm3vecILi2EfLNS1_9qualifierE0EEENS_9allocatorIS4_EEE20__throw_length_errorB7v160006Ev, symObjAddr: 0x65A0, symBinAddr: 0x1000092A8, symSize: 0x1C }
  - { offsetInCU: 0x1D795, offset: 0x1D795, size: 0x8, addend: 0x0, symName: __ZNSt3__116allocator_traitsINS_9allocatorIN3glm3vecILi2EfLNS2_9qualifierE0EEEEEE8max_sizeB7v160006IS6_vEEmRKS6_, symObjAddr: 0x65BC, symBinAddr: 0x1000092C4, symSize: 0x24 }
  - { offsetInCU: 0x1D7C3, offset: 0x1D7C3, size: 0x8, addend: 0x0, symName: __ZNKSt3__16vectorIN3glm3vecILi2EfLNS1_9qualifierE0EEENS_9allocatorIS4_EEE7__allocB7v160006Ev, symObjAddr: 0x65E0, symBinAddr: 0x1000092E8, symSize: 0x28 }
  - { offsetInCU: 0x1D7E9, offset: 0x1D7E9, size: 0x8, addend: 0x0, symName: __ZNKSt3__19allocatorIN3glm3vecILi2EfLNS1_9qualifierE0EEEE8max_sizeB7v160006Ev, symObjAddr: 0x6608, symBinAddr: 0x100009310, symSize: 0x14 }
  - { offsetInCU: 0x1D80F, offset: 0x1D80F, size: 0x8, addend: 0x0, symName: __ZNKSt3__117__compressed_pairIPN3glm3vecILi2EfLNS1_9qualifierE0EEENS_9allocatorIS4_EEE6secondB7v160006Ev, symObjAddr: 0x661C, symBinAddr: 0x100009324, symSize: 0x24 }
  - { offsetInCU: 0x1D835, offset: 0x1D835, size: 0x8, addend: 0x0, symName: __ZNKSt3__122__compressed_pair_elemINS_9allocatorIN3glm3vecILi2EfLNS2_9qualifierE0EEEEELi1ELb1EE5__getB7v160006Ev, symObjAddr: 0x6640, symBinAddr: 0x100009348, symSize: 0x14 }
  - { offsetInCU: 0x1D85B, offset: 0x1D85B, size: 0x8, addend: 0x0, symName: __ZNSt3__114__split_bufferIN3glm3vecILi2EfLNS1_9qualifierE0EEERNS_9allocatorIS4_EEEC2EmmS7_, symObjAddr: 0x6654, symBinAddr: 0x10000935C, symSize: 0xD4 }
  - { offsetInCU: 0x1D8CE, offset: 0x1D8CE, size: 0x8, addend: 0x0, symName: __ZNSt3__117__compressed_pairIPN3glm3vecILi2EfLNS1_9qualifierE0EEERNS_9allocatorIS4_EEEC1B7v160006IDnS8_EEOT_OT0_, symObjAddr: 0x6728, symBinAddr: 0x100009430, symSize: 0x3C }
  - { offsetInCU: 0x1D926, offset: 0x1D926, size: 0x8, addend: 0x0, symName: __ZNSt3__114__split_bufferIN3glm3vecILi2EfLNS1_9qualifierE0EEERNS_9allocatorIS4_EEE7__allocB7v160006Ev, symObjAddr: 0x67A4, symBinAddr: 0x1000094AC, symSize: 0x28 }
  - { offsetInCU: 0x1D94C, offset: 0x1D94C, size: 0x8, addend: 0x0, symName: __ZNSt3__114__split_bufferIN3glm3vecILi2EfLNS1_9qualifierE0EEERNS_9allocatorIS4_EEE9__end_capB7v160006Ev, symObjAddr: 0x67CC, symBinAddr: 0x1000094D4, symSize: 0x28 }
  - { offsetInCU: 0x1D972, offset: 0x1D972, size: 0x8, addend: 0x0, symName: __ZNSt3__117__compressed_pairIPN3glm3vecILi2EfLNS1_9qualifierE0EEERNS_9allocatorIS4_EEEC2B7v160006IDnS8_EEOT_OT0_, symObjAddr: 0x67F4, symBinAddr: 0x1000094FC, symSize: 0x48 }
  - { offsetInCU: 0x1D9CA, offset: 0x1D9CA, size: 0x8, addend: 0x0, symName: __ZNSt3__122__compressed_pair_elemIRNS_9allocatorIN3glm3vecILi2EfLNS2_9qualifierE0EEEEELi1ELb0EEC2B7v160006IS7_vEEOT_, symObjAddr: 0x683C, symBinAddr: 0x100009544, symSize: 0x20 }
  - { offsetInCU: 0x1DA0C, offset: 0x1DA0C, size: 0x8, addend: 0x0, symName: __ZNSt3__19allocatorIN3glm3vecILi2EfLNS1_9qualifierE0EEEE8allocateB7v160006Em, symObjAddr: 0x685C, symBinAddr: 0x100009564, symSize: 0x58 }
  - { offsetInCU: 0x1DA40, offset: 0x1DA40, size: 0x8, addend: 0x0, symName: __ZNSt3__117__compressed_pairIPN3glm3vecILi2EfLNS1_9qualifierE0EEERNS_9allocatorIS4_EEE6secondB7v160006Ev, symObjAddr: 0x68B4, symBinAddr: 0x1000095BC, symSize: 0x28 }
  - { offsetInCU: 0x1DA66, offset: 0x1DA66, size: 0x8, addend: 0x0, symName: __ZNSt3__122__compressed_pair_elemIRNS_9allocatorIN3glm3vecILi2EfLNS2_9qualifierE0EEEEELi1ELb0EE5__getB7v160006Ev, symObjAddr: 0x68DC, symBinAddr: 0x1000095E4, symSize: 0x18 }
  - { offsetInCU: 0x1DA8C, offset: 0x1DA8C, size: 0x8, addend: 0x0, symName: __ZNSt3__117__compressed_pairIPN3glm3vecILi2EfLNS1_9qualifierE0EEERNS_9allocatorIS4_EEE5firstB7v160006Ev, symObjAddr: 0x68F4, symBinAddr: 0x1000095FC, symSize: 0x24 }
  - { offsetInCU: 0x1DAB2, offset: 0x1DAB2, size: 0x8, addend: 0x0, symName: __ZNSt3__116reverse_iteratorIPN3glm3vecILi2EfLNS1_9qualifierE0EEEEC1B7v160006ES5_, symObjAddr: 0x6990, symBinAddr: 0x100009698, symSize: 0x34 }
  - { offsetInCU: 0x1DAEA, offset: 0x1DAEA, size: 0x8, addend: 0x0, symName: __ZNKSt3__116reverse_iteratorIPN3glm3vecILi2EfLNS1_9qualifierE0EEEE4baseB7v160006Ev, symObjAddr: 0x69C4, symBinAddr: 0x1000096CC, symSize: 0x18 }
  - { offsetInCU: 0x1DB10, offset: 0x1DB10, size: 0x8, addend: 0x0, symName: __ZNKSt3__16vectorIN3glm3vecILi2EfLNS1_9qualifierE0EEENS_9allocatorIS4_EEE14__annotate_newB7v160006Em, symObjAddr: 0x6A18, symBinAddr: 0x100009720, symSize: 0xAC }
  - { offsetInCU: 0x1DB5F, offset: 0x1DB5F, size: 0x8, addend: 0x0, symName: __ZNKSt3__111__move_loopINS_17_ClassicAlgPolicyEEclB7v160006INS_16reverse_iteratorIPN3glm3vecILi2EfLNS5_9qualifierE0EEEEESA_SA_EENS_4pairIT_T1_EESC_T0_SD_, symObjAddr: 0x6DC4, symBinAddr: 0x100009ACC, symSize: 0xA0 }
  - { offsetInCU: 0x1DBD0, offset: 0x1DBD0, size: 0x8, addend: 0x0, symName: __ZNSt3__18_IterOpsINS_17_ClassicAlgPolicyEE11__iter_moveB7v160006IRNS_16reverse_iteratorIPN3glm3vecILi2EfLNS5_9qualifierE0EEEEEEENS_9enable_ifIXsr12is_referenceIDTdeclsr3stdE7declvalIRT_EEEEE5valueEDTclsr3stdE4movedeclsr3stdE7declvalISE_EEEEE4typeEOSD_, symObjAddr: 0x6FF8, symBinAddr: 0x100009D00, symSize: 0x28 }
  - { offsetInCU: 0x1DBFC, offset: 0x1DBFC, size: 0x8, addend: 0x0, symName: __ZNKSt3__116reverse_iteratorIPN3glm3vecILi2EfLNS1_9qualifierE0EEEEdeB7v160006Ev, symObjAddr: 0x7020, symBinAddr: 0x100009D28, symSize: 0x28 }
  - { offsetInCU: 0x1DC30, offset: 0x1DC30, size: 0x8, addend: 0x0, symName: __ZNSt3__116reverse_iteratorIPN3glm3vecILi2EfLNS1_9qualifierE0EEEEppB7v160006Ev, symObjAddr: 0x7048, symBinAddr: 0x100009D50, symSize: 0x20 }
  - { offsetInCU: 0x1DC56, offset: 0x1DC56, size: 0x8, addend: 0x0, symName: __ZNSt3__18_IterOpsINS_17_ClassicAlgPolicyEE25__validate_iter_referenceB7v160006IRNS_16reverse_iteratorIPN3glm3vecILi2EfLNS5_9qualifierE0EEEEEEEvv, symObjAddr: 0x7068, symBinAddr: 0x100009D70, symSize: 0x4 }
  - { offsetInCU: 0x1DC74, offset: 0x1DC74, size: 0x8, addend: 0x0, symName: __ZNSt3__118__unwrap_iter_implINS_16reverse_iteratorIPN3glm3vecILi2EfLNS2_9qualifierE0EEEEELb0EE8__unwrapB7v160006ES7_, symObjAddr: 0x706C, symBinAddr: 0x100009D74, symSize: 0x24 }
  - { offsetInCU: 0x1DC9D, offset: 0x1DC9D, size: 0x8, addend: 0x0, symName: __ZNSt3__14pairINS_16reverse_iteratorIPN3glm3vecILi2EfLNS2_9qualifierE0EEEEES7_EC1B7v160006IS7_S7_LPv0EEEOT_OT0_, symObjAddr: 0x7090, symBinAddr: 0x100009D98, symSize: 0x3C }
  - { offsetInCU: 0x1DCFB, offset: 0x1DCFB, size: 0x8, addend: 0x0, symName: __ZNSt3__14pairINS_16reverse_iteratorIPN3glm3vecILi2EfLNS2_9qualifierE0EEEEES7_EC2B7v160006IS7_S7_LPv0EEEOT_OT0_, symObjAddr: 0x70CC, symBinAddr: 0x100009DD4, symSize: 0x34 }
  - { offsetInCU: 0x1DD59, offset: 0x1DD59, size: 0x8, addend: 0x0, symName: __ZNSt3__118__unwrap_iter_implINS_16reverse_iteratorIPN3glm3vecILi2EfLNS2_9qualifierE0EEEEELb0EE8__rewrapB7v160006ES7_S7_, symObjAddr: 0x7100, symBinAddr: 0x100009E08, symSize: 0x2C }
  - { offsetInCU: 0x1DD87, offset: 0x1DD87, size: 0x8, addend: 0x0, symName: __ZNSt3__116reverse_iteratorIPN3glm3vecILi2EfLNS1_9qualifierE0EEEEC2B7v160006ES5_, symObjAddr: 0x712C, symBinAddr: 0x100009E34, symSize: 0x28 }
  - { offsetInCU: 0x1DDBF, offset: 0x1DDBF, size: 0x8, addend: 0x0, symName: __ZNSt3__114__split_bufferIN3glm3vecILi2EfLNS1_9qualifierE0EEERNS_9allocatorIS4_EEED2Ev, symObjAddr: 0x7154, symBinAddr: 0x100009E5C, symSize: 0x8C }
  - { offsetInCU: 0x1DDEB, offset: 0x1DDEB, size: 0x8, addend: 0x0, symName: __ZNSt3__114__split_bufferIN3glm3vecILi2EfLNS1_9qualifierE0EEERNS_9allocatorIS4_EEE5clearB7v160006Ev, symObjAddr: 0x71E0, symBinAddr: 0x100009EE8, symSize: 0x28 }
  - { offsetInCU: 0x1DE11, offset: 0x1DE11, size: 0x8, addend: 0x0, symName: __ZNKSt3__114__split_bufferIN3glm3vecILi2EfLNS1_9qualifierE0EEERNS_9allocatorIS4_EEE8capacityB7v160006Ev, symObjAddr: 0x7208, symBinAddr: 0x100009F10, symSize: 0x40 }
  - { offsetInCU: 0x1DE37, offset: 0x1DE37, size: 0x8, addend: 0x0, symName: __ZNSt3__114__split_bufferIN3glm3vecILi2EfLNS1_9qualifierE0EEERNS_9allocatorIS4_EEE17__destruct_at_endB7v160006EPS4_, symObjAddr: 0x7248, symBinAddr: 0x100009F50, symSize: 0x2C }
  - { offsetInCU: 0x1DE6B, offset: 0x1DE6B, size: 0x8, addend: 0x0, symName: __ZNSt3__114__split_bufferIN3glm3vecILi2EfLNS1_9qualifierE0EEERNS_9allocatorIS4_EEE17__destruct_at_endB7v160006EPS4_NS_17integral_constantIbLb0EEE, symObjAddr: 0x7274, symBinAddr: 0x100009F7C, symSize: 0x80 }
  - { offsetInCU: 0x1DEAC, offset: 0x1DEAC, size: 0x8, addend: 0x0, symName: __ZNKSt3__114__split_bufferIN3glm3vecILi2EfLNS1_9qualifierE0EEERNS_9allocatorIS4_EEE9__end_capB7v160006Ev, symObjAddr: 0x72F4, symBinAddr: 0x100009FFC, symSize: 0x28 }
  - { offsetInCU: 0x1DED2, offset: 0x1DED2, size: 0x8, addend: 0x0, symName: __ZNKSt3__117__compressed_pairIPN3glm3vecILi2EfLNS1_9qualifierE0EEERNS_9allocatorIS4_EEE5firstB7v160006Ev, symObjAddr: 0x731C, symBinAddr: 0x10000A024, symSize: 0x24 }
  - { offsetInCU: 0x1DEF8, offset: 0x1DEF8, size: 0x8, addend: 0x0, symName: __ZNSt3__16vectorI4FaceNS_9allocatorIS1_EEE9__end_capB7v160006Ev, symObjAddr: 0x7340, symBinAddr: 0x10000A048, symSize: 0x28 }
  - { offsetInCU: 0x1DF1E, offset: 0x1DF1E, size: 0x8, addend: 0x0, symName: __ZNSt3__16vectorI4FaceNS_9allocatorIS1_EEE22__construct_one_at_endB7v160006IJRKS1_EEEvDpOT_, symObjAddr: 0x7368, symBinAddr: 0x10000A070, symSize: 0x90 }
  - { offsetInCU: 0x1DF6D, offset: 0x1DF6D, size: 0x8, addend: 0x0, symName: __ZNSt3__16vectorI4FaceNS_9allocatorIS1_EEE21__push_back_slow_pathIRKS1_EEvOT_, symObjAddr: 0x73F8, symBinAddr: 0x10000A100, symSize: 0xD8 }
  - { offsetInCU: 0x1DFCB, offset: 0x1DFCB, size: 0x8, addend: 0x0, symName: __ZNSt3__117__compressed_pairIP4FaceNS_9allocatorIS1_EEE5firstB7v160006Ev, symObjAddr: 0x74D0, symBinAddr: 0x10000A1D8, symSize: 0x24 }
  - { offsetInCU: 0x1DFF1, offset: 0x1DFF1, size: 0x8, addend: 0x0, symName: __ZNSt3__122__compressed_pair_elemIP4FaceLi0ELb0EE5__getB7v160006Ev, symObjAddr: 0x74F4, symBinAddr: 0x10000A1FC, symSize: 0x14 }
  - { offsetInCU: 0x1E030, offset: 0x1E030, size: 0x8, addend: 0x0, symName: __ZNSt3__16vectorI4FaceNS_9allocatorIS1_EEE21_ConstructTransactionC1B7v160006ERS4_m, symObjAddr: 0x7508, symBinAddr: 0x10000A210, symSize: 0x3C }
  - { offsetInCU: 0x1E078, offset: 0x1E078, size: 0x8, addend: 0x0, symName: __ZNSt3__116allocator_traitsINS_9allocatorI4FaceEEE9constructB7v160006IS2_JRKS2_EvEEvRS3_PT_DpOT0_, symObjAddr: 0x7544, symBinAddr: 0x10000A24C, symSize: 0x34 }
  - { offsetInCU: 0x1E0CF, offset: 0x1E0CF, size: 0x8, addend: 0x0, symName: __ZNSt3__16vectorI4FaceNS_9allocatorIS1_EEE21_ConstructTransactionD1B7v160006Ev, symObjAddr: 0x7578, symBinAddr: 0x10000A280, symSize: 0x2C }
  - { offsetInCU: 0x1E0F9, offset: 0x1E0F9, size: 0x8, addend: 0x0, symName: __ZNSt3__16vectorI4FaceNS_9allocatorIS1_EEE21_ConstructTransactionC2B7v160006ERS4_m, symObjAddr: 0x75A4, symBinAddr: 0x10000A2AC, symSize: 0x4C }
  - { offsetInCU: 0x1E141, offset: 0x1E141, size: 0x8, addend: 0x0, symName: __ZNSt3__19allocatorI4FaceE9constructB7v160006IS1_JRKS1_EEEvPT_DpOT0_, symObjAddr: 0x75F0, symBinAddr: 0x10000A2F8, symSize: 0x34 }
  - { offsetInCU: 0x1E197, offset: 0x1E197, size: 0x8, addend: 0x0, symName: __ZNSt3__16vectorI4FaceNS_9allocatorIS1_EEE21_ConstructTransactionD2B7v160006Ev, symObjAddr: 0x7624, symBinAddr: 0x10000A32C, symSize: 0x20 }
  - { offsetInCU: 0x1E1C1, offset: 0x1E1C1, size: 0x8, addend: 0x0, symName: __ZNKSt3__16vectorI4FaceNS_9allocatorIS1_EEE11__recommendB7v160006Em, symObjAddr: 0x7644, symBinAddr: 0x10000A34C, symSize: 0xB4 }
  - { offsetInCU: 0x1E216, offset: 0x1E216, size: 0x8, addend: 0x0, symName: __ZNSt3__114__split_bufferI4FaceRNS_9allocatorIS1_EEEC1EmmS4_, symObjAddr: 0x76F8, symBinAddr: 0x10000A400, symSize: 0x44 }
  - { offsetInCU: 0x1E26C, offset: 0x1E26C, size: 0x8, addend: 0x0, symName: __ZNSt3__114__split_bufferI4FaceRNS_9allocatorIS1_EEED1Ev, symObjAddr: 0x7854, symBinAddr: 0x10000A55C, symSize: 0x2C }
  - { offsetInCU: 0x1E298, offset: 0x1E298, size: 0x8, addend: 0x0, symName: __ZNKSt3__16vectorI4FaceNS_9allocatorIS1_EEE8max_sizeEv, symObjAddr: 0x7880, symBinAddr: 0x10000A588, symSize: 0x60 }
  - { offsetInCU: 0x1E2C0, offset: 0x1E2C0, size: 0x8, addend: 0x0, symName: __ZNKSt3__16vectorI4FaceNS_9allocatorIS1_EEE20__throw_length_errorB7v160006Ev, symObjAddr: 0x78E0, symBinAddr: 0x10000A5E8, symSize: 0x1C }
  - { offsetInCU: 0x1E2F0, offset: 0x1E2F0, size: 0x8, addend: 0x0, symName: __ZNSt3__116allocator_traitsINS_9allocatorI4FaceEEE8max_sizeB7v160006IS3_vEEmRKS3_, symObjAddr: 0x78FC, symBinAddr: 0x10000A604, symSize: 0x24 }
  - { offsetInCU: 0x1E31E, offset: 0x1E31E, size: 0x8, addend: 0x0, symName: __ZNKSt3__16vectorI4FaceNS_9allocatorIS1_EEE7__allocB7v160006Ev, symObjAddr: 0x7920, symBinAddr: 0x10000A628, symSize: 0x28 }
  - { offsetInCU: 0x1E344, offset: 0x1E344, size: 0x8, addend: 0x0, symName: __ZNKSt3__19allocatorI4FaceE8max_sizeB7v160006Ev, symObjAddr: 0x7948, symBinAddr: 0x10000A650, symSize: 0x20 }
  - { offsetInCU: 0x1E36A, offset: 0x1E36A, size: 0x8, addend: 0x0, symName: __ZNKSt3__117__compressed_pairIP4FaceNS_9allocatorIS1_EEE6secondB7v160006Ev, symObjAddr: 0x7968, symBinAddr: 0x10000A670, symSize: 0x24 }
  - { offsetInCU: 0x1E390, offset: 0x1E390, size: 0x8, addend: 0x0, symName: __ZNKSt3__122__compressed_pair_elemINS_9allocatorI4FaceEELi1ELb1EE5__getB7v160006Ev, symObjAddr: 0x798C, symBinAddr: 0x10000A694, symSize: 0x14 }
  - { offsetInCU: 0x1E3B6, offset: 0x1E3B6, size: 0x8, addend: 0x0, symName: __ZNSt3__114__split_bufferI4FaceRNS_9allocatorIS1_EEEC2EmmS4_, symObjAddr: 0x79A0, symBinAddr: 0x10000A6A8, symSize: 0xE0 }
  - { offsetInCU: 0x1E429, offset: 0x1E429, size: 0x8, addend: 0x0, symName: __ZNSt3__117__compressed_pairIP4FaceRNS_9allocatorIS1_EEEC1B7v160006IDnS5_EEOT_OT0_, symObjAddr: 0x7A80, symBinAddr: 0x10000A788, symSize: 0x3C }
  - { offsetInCU: 0x1E481, offset: 0x1E481, size: 0x8, addend: 0x0, symName: __ZNSt3__114__split_bufferI4FaceRNS_9allocatorIS1_EEE7__allocB7v160006Ev, symObjAddr: 0x7AFC, symBinAddr: 0x10000A804, symSize: 0x28 }
  - { offsetInCU: 0x1E4A7, offset: 0x1E4A7, size: 0x8, addend: 0x0, symName: __ZNSt3__114__split_bufferI4FaceRNS_9allocatorIS1_EEE9__end_capB7v160006Ev, symObjAddr: 0x7B24, symBinAddr: 0x10000A82C, symSize: 0x28 }
  - { offsetInCU: 0x1E4CD, offset: 0x1E4CD, size: 0x8, addend: 0x0, symName: __ZNSt3__117__compressed_pairIP4FaceRNS_9allocatorIS1_EEEC2B7v160006IDnS5_EEOT_OT0_, symObjAddr: 0x7B4C, symBinAddr: 0x10000A854, symSize: 0x48 }
  - { offsetInCU: 0x1E525, offset: 0x1E525, size: 0x8, addend: 0x0, symName: __ZNSt3__122__compressed_pair_elemIRNS_9allocatorI4FaceEELi1ELb0EEC2B7v160006IS4_vEEOT_, symObjAddr: 0x7B94, symBinAddr: 0x10000A89C, symSize: 0x20 }
  - { offsetInCU: 0x1E567, offset: 0x1E567, size: 0x8, addend: 0x0, symName: __ZNSt3__19allocatorI4FaceE8allocateB7v160006Em, symObjAddr: 0x7BB4, symBinAddr: 0x10000A8BC, symSize: 0x5C }
  - { offsetInCU: 0x1E59B, offset: 0x1E59B, size: 0x8, addend: 0x0, symName: __ZNSt3__117__compressed_pairIP4FaceRNS_9allocatorIS1_EEE6secondB7v160006Ev, symObjAddr: 0x7C10, symBinAddr: 0x10000A918, symSize: 0x28 }
  - { offsetInCU: 0x1E5C1, offset: 0x1E5C1, size: 0x8, addend: 0x0, symName: __ZNSt3__122__compressed_pair_elemIRNS_9allocatorI4FaceEELi1ELb0EE5__getB7v160006Ev, symObjAddr: 0x7C38, symBinAddr: 0x10000A940, symSize: 0x18 }
  - { offsetInCU: 0x1E5E7, offset: 0x1E5E7, size: 0x8, addend: 0x0, symName: __ZNSt3__117__compressed_pairIP4FaceRNS_9allocatorIS1_EEE5firstB7v160006Ev, symObjAddr: 0x7C50, symBinAddr: 0x10000A958, symSize: 0x24 }
  - { offsetInCU: 0x1E60D, offset: 0x1E60D, size: 0x8, addend: 0x0, symName: __ZNSt3__116reverse_iteratorIP4FaceEC1B7v160006ES2_, symObjAddr: 0x7CEC, symBinAddr: 0x10000A9F4, symSize: 0x34 }
  - { offsetInCU: 0x1E645, offset: 0x1E645, size: 0x8, addend: 0x0, symName: __ZNKSt3__116reverse_iteratorIP4FaceE4baseB7v160006Ev, symObjAddr: 0x7D20, symBinAddr: 0x10000AA28, symSize: 0x18 }
  - { offsetInCU: 0x1E66B, offset: 0x1E66B, size: 0x8, addend: 0x0, symName: __ZNKSt3__16vectorI4FaceNS_9allocatorIS1_EEE14__annotate_newB7v160006Em, symObjAddr: 0x7D74, symBinAddr: 0x10000AA7C, symSize: 0xC8 }
  - { offsetInCU: 0x1E6BA, offset: 0x1E6BA, size: 0x8, addend: 0x0, symName: __ZNKSt3__111__move_loopINS_17_ClassicAlgPolicyEEclB7v160006INS_16reverse_iteratorIP4FaceEES7_S7_EENS_4pairIT_T1_EES9_T0_SA_, symObjAddr: 0x813C, symBinAddr: 0x10000AE44, symSize: 0x9C }
  - { offsetInCU: 0x1E72B, offset: 0x1E72B, size: 0x8, addend: 0x0, symName: __ZNSt3__18_IterOpsINS_17_ClassicAlgPolicyEE11__iter_moveB7v160006IRNS_16reverse_iteratorIP4FaceEEEENS_9enable_ifIXsr12is_referenceIDTdeclsr3stdE7declvalIRT_EEEEE5valueEDTclsr3stdE4movedeclsr3stdE7declvalISB_EEEEE4typeEOSA_, symObjAddr: 0x836C, symBinAddr: 0x10000B074, symSize: 0x28 }
  - { offsetInCU: 0x1E757, offset: 0x1E757, size: 0x8, addend: 0x0, symName: __ZNKSt3__116reverse_iteratorIP4FaceEdeB7v160006Ev, symObjAddr: 0x8394, symBinAddr: 0x10000B09C, symSize: 0x28 }
  - { offsetInCU: 0x1E78B, offset: 0x1E78B, size: 0x8, addend: 0x0, symName: __ZNSt3__116reverse_iteratorIP4FaceEppB7v160006Ev, symObjAddr: 0x83BC, symBinAddr: 0x10000B0C4, symSize: 0x20 }
  - { offsetInCU: 0x1E7B1, offset: 0x1E7B1, size: 0x8, addend: 0x0, symName: __ZNSt3__18_IterOpsINS_17_ClassicAlgPolicyEE25__validate_iter_referenceB7v160006IRNS_16reverse_iteratorIP4FaceEEEEvv, symObjAddr: 0x83DC, symBinAddr: 0x10000B0E4, symSize: 0x4 }
  - { offsetInCU: 0x1E7CF, offset: 0x1E7CF, size: 0x8, addend: 0x0, symName: __ZNSt3__118__unwrap_iter_implINS_16reverse_iteratorIP4FaceEELb0EE8__unwrapB7v160006ES4_, symObjAddr: 0x83E0, symBinAddr: 0x10000B0E8, symSize: 0x24 }
  - { offsetInCU: 0x1E7F8, offset: 0x1E7F8, size: 0x8, addend: 0x0, symName: __ZNSt3__14pairINS_16reverse_iteratorIP4FaceEES4_EC1B7v160006IS4_S4_LPv0EEEOT_OT0_, symObjAddr: 0x8404, symBinAddr: 0x10000B10C, symSize: 0x3C }
  - { offsetInCU: 0x1E856, offset: 0x1E856, size: 0x8, addend: 0x0, symName: __ZNSt3__14pairINS_16reverse_iteratorIP4FaceEES4_EC2B7v160006IS4_S4_LPv0EEEOT_OT0_, symObjAddr: 0x8440, symBinAddr: 0x10000B148, symSize: 0x34 }
  - { offsetInCU: 0x1E8B4, offset: 0x1E8B4, size: 0x8, addend: 0x0, symName: __ZNSt3__118__unwrap_iter_implINS_16reverse_iteratorIP4FaceEELb0EE8__rewrapB7v160006ES4_S4_, symObjAddr: 0x8474, symBinAddr: 0x10000B17C, symSize: 0x2C }
  - { offsetInCU: 0x1E8E2, offset: 0x1E8E2, size: 0x8, addend: 0x0, symName: __ZNSt3__116reverse_iteratorIP4FaceEC2B7v160006ES2_, symObjAddr: 0x84A0, symBinAddr: 0x10000B1A8, symSize: 0x28 }
  - { offsetInCU: 0x1E91A, offset: 0x1E91A, size: 0x8, addend: 0x0, symName: __ZNSt3__114__split_bufferI4FaceRNS_9allocatorIS1_EEED2Ev, symObjAddr: 0x84C8, symBinAddr: 0x10000B1D0, symSize: 0x8C }
  - { offsetInCU: 0x1E946, offset: 0x1E946, size: 0x8, addend: 0x0, symName: __ZNSt3__114__split_bufferI4FaceRNS_9allocatorIS1_EEE5clearB7v160006Ev, symObjAddr: 0x8554, symBinAddr: 0x10000B25C, symSize: 0x28 }
  - { offsetInCU: 0x1E96C, offset: 0x1E96C, size: 0x8, addend: 0x0, symName: __ZNKSt3__114__split_bufferI4FaceRNS_9allocatorIS1_EEE8capacityB7v160006Ev, symObjAddr: 0x857C, symBinAddr: 0x10000B284, symSize: 0x40 }
  - { offsetInCU: 0x1E992, offset: 0x1E992, size: 0x8, addend: 0x0, symName: __ZNSt3__114__split_bufferI4FaceRNS_9allocatorIS1_EEE17__destruct_at_endB7v160006EPS1_, symObjAddr: 0x85BC, symBinAddr: 0x10000B2C4, symSize: 0x2C }
  - { offsetInCU: 0x1E9C6, offset: 0x1E9C6, size: 0x8, addend: 0x0, symName: __ZNSt3__114__split_bufferI4FaceRNS_9allocatorIS1_EEE17__destruct_at_endB7v160006EPS1_NS_17integral_constantIbLb0EEE, symObjAddr: 0x85E8, symBinAddr: 0x10000B2F0, symSize: 0x80 }
  - { offsetInCU: 0x1EA07, offset: 0x1EA07, size: 0x8, addend: 0x0, symName: __ZNKSt3__114__split_bufferI4FaceRNS_9allocatorIS1_EEE9__end_capB7v160006Ev, symObjAddr: 0x8668, symBinAddr: 0x10000B370, symSize: 0x28 }
  - { offsetInCU: 0x1EA2D, offset: 0x1EA2D, size: 0x8, addend: 0x0, symName: __ZNKSt3__117__compressed_pairIP4FaceRNS_9allocatorIS1_EEE5firstB7v160006Ev, symObjAddr: 0x8690, symBinAddr: 0x10000B398, symSize: 0x24 }
  - { offsetInCU: 0x1EA53, offset: 0x1EA53, size: 0x8, addend: 0x0, symName: __ZNSt3__16vectorIjNS_9allocatorIjEEEC2B7v160006Ev, symObjAddr: 0x86B4, symBinAddr: 0x10000B3BC, symSize: 0x58 }
  - { offsetInCU: 0x1EA7D, offset: 0x1EA7D, size: 0x8, addend: 0x0, symName: __ZNSt3__117__compressed_pairIPjNS_9allocatorIjEEEC1B7v160006IDnNS_18__default_init_tagEEEOT_OT0_, symObjAddr: 0x870C, symBinAddr: 0x10000B414, symSize: 0x3C }
  - { offsetInCU: 0x1EAD5, offset: 0x1EAD5, size: 0x8, addend: 0x0, symName: __ZNSt3__117__compressed_pairIPjNS_9allocatorIjEEEC2B7v160006IDnNS_18__default_init_tagEEEOT_OT0_, symObjAddr: 0x8758, symBinAddr: 0x10000B460, symSize: 0x40 }
  - { offsetInCU: 0x1EB2D, offset: 0x1EB2D, size: 0x8, addend: 0x0, symName: __ZNSt3__122__compressed_pair_elemIPjLi0ELb0EEC2B7v160006IDnvEEOT_, symObjAddr: 0x8798, symBinAddr: 0x10000B4A0, symSize: 0x1C }
  - { offsetInCU: 0x1EB6F, offset: 0x1EB6F, size: 0x8, addend: 0x0, symName: __ZNSt3__122__compressed_pair_elemINS_9allocatorIjEELi1ELb1EEC2B7v160006ENS_18__default_init_tagE, symObjAddr: 0x87B4, symBinAddr: 0x10000B4BC, symSize: 0x2C }
  - { offsetInCU: 0x1EBA4, offset: 0x1EBA4, size: 0x8, addend: 0x0, symName: __ZNSt3__19allocatorIjEC2B7v160006Ev, symObjAddr: 0x87E0, symBinAddr: 0x10000B4E8, symSize: 0x2C }
  - { offsetInCU: 0x1EBCE, offset: 0x1EBCE, size: 0x8, addend: 0x0, symName: __ZNSt3__116__non_trivial_ifILb1ENS_9allocatorIjEEEC2B7v160006Ev, symObjAddr: 0x880C, symBinAddr: 0x10000B514, symSize: 0x14 }
  - { offsetInCU: 0x1EBF8, offset: 0x1EBF8, size: 0x8, addend: 0x0, symName: __ZNSt3__16vectorIjNS_9allocatorIjEEED2B7v160006Ev, symObjAddr: 0x8820, symBinAddr: 0x10000B528, symSize: 0x44 }
  - { offsetInCU: 0x1EC22, offset: 0x1EC22, size: 0x8, addend: 0x0, symName: __ZNSt3__16vectorIjNS_9allocatorIjEEE16__destroy_vectorC1ERS3_, symObjAddr: 0x8864, symBinAddr: 0x10000B56C, symSize: 0x34 }
  - { offsetInCU: 0x1EC5B, offset: 0x1EC5B, size: 0x8, addend: 0x0, symName: __ZNSt3__16vectorIjNS_9allocatorIjEEE16__destroy_vectorclB7v160006Ev, symObjAddr: 0x8898, symBinAddr: 0x10000B5A0, symSize: 0x9C }
  - { offsetInCU: 0x1EC81, offset: 0x1EC81, size: 0x8, addend: 0x0, symName: __ZNSt3__16vectorIjNS_9allocatorIjEEE16__destroy_vectorC2ERS3_, symObjAddr: 0x8934, symBinAddr: 0x10000B63C, symSize: 0x20 }
  - { offsetInCU: 0x1ECBA, offset: 0x1ECBA, size: 0x8, addend: 0x0, symName: __ZNKSt3__16vectorIjNS_9allocatorIjEEE17__annotate_deleteB7v160006Ev, symObjAddr: 0x8954, symBinAddr: 0x10000B65C, symSize: 0xB8 }
  - { offsetInCU: 0x1ECE0, offset: 0x1ECE0, size: 0x8, addend: 0x0, symName: __ZNSt3__16vectorIjNS_9allocatorIjEEE7__clearB7v160006Ev, symObjAddr: 0x8A1C, symBinAddr: 0x10000B724, symSize: 0x28 }
  - { offsetInCU: 0x1ED06, offset: 0x1ED06, size: 0x8, addend: 0x0, symName: __ZNSt3__116allocator_traitsINS_9allocatorIjEEE10deallocateB7v160006ERS2_Pjm, symObjAddr: 0x8A44, symBinAddr: 0x10000B74C, symSize: 0x34 }
  - { offsetInCU: 0x1ED48, offset: 0x1ED48, size: 0x8, addend: 0x0, symName: __ZNSt3__16vectorIjNS_9allocatorIjEEE7__allocB7v160006Ev, symObjAddr: 0x8A78, symBinAddr: 0x10000B780, symSize: 0x28 }
  - { offsetInCU: 0x1ED6E, offset: 0x1ED6E, size: 0x8, addend: 0x0, symName: __ZNKSt3__16vectorIjNS_9allocatorIjEEE8capacityB7v160006Ev, symObjAddr: 0x8AA0, symBinAddr: 0x10000B7A8, symSize: 0x40 }
  - { offsetInCU: 0x1ED94, offset: 0x1ED94, size: 0x8, addend: 0x0, symName: __ZNKSt3__16vectorIjNS_9allocatorIjEEE31__annotate_contiguous_containerB7v160006EPKvS5_S5_S5_, symObjAddr: 0x8AE0, symBinAddr: 0x10000B7E8, symSize: 0x20 }
  - { offsetInCU: 0x1EDE6, offset: 0x1EDE6, size: 0x8, addend: 0x0, symName: __ZNKSt3__16vectorIjNS_9allocatorIjEEE4dataB7v160006Ev, symObjAddr: 0x8B00, symBinAddr: 0x10000B808, symSize: 0x28 }
  - { offsetInCU: 0x1EE0C, offset: 0x1EE0C, size: 0x8, addend: 0x0, symName: __ZNSt3__16vectorIjNS_9allocatorIjEEE22__base_destruct_at_endB7v160006EPj, symObjAddr: 0x8B3C, symBinAddr: 0x10000B844, symSize: 0x8C }
  - { offsetInCU: 0x1EE50, offset: 0x1EE50, size: 0x8, addend: 0x0, symName: __ZNSt3__116allocator_traitsINS_9allocatorIjEEE7destroyB7v160006IjvEEvRS2_PT_, symObjAddr: 0x8BC8, symBinAddr: 0x10000B8D0, symSize: 0x2C }
  - { offsetInCU: 0x1EE8D, offset: 0x1EE8D, size: 0x8, addend: 0x0, symName: __ZNSt3__19allocatorIjE7destroyB7v160006EPj, symObjAddr: 0x8BF4, symBinAddr: 0x10000B8FC, symSize: 0x14 }
  - { offsetInCU: 0x1EEC1, offset: 0x1EEC1, size: 0x8, addend: 0x0, symName: __ZNSt3__19allocatorIjE10deallocateB7v160006EPjm, symObjAddr: 0x8C08, symBinAddr: 0x10000B910, symSize: 0x40 }
  - { offsetInCU: 0x1EF03, offset: 0x1EF03, size: 0x8, addend: 0x0, symName: __ZNSt3__117__compressed_pairIPjNS_9allocatorIjEEE6secondB7v160006Ev, symObjAddr: 0x8C48, symBinAddr: 0x10000B950, symSize: 0x24 }
  - { offsetInCU: 0x1EF29, offset: 0x1EF29, size: 0x8, addend: 0x0, symName: __ZNSt3__122__compressed_pair_elemINS_9allocatorIjEELi1ELb1EE5__getB7v160006Ev, symObjAddr: 0x8C6C, symBinAddr: 0x10000B974, symSize: 0x14 }
  - { offsetInCU: 0x1EF4F, offset: 0x1EF4F, size: 0x8, addend: 0x0, symName: __ZNKSt3__16vectorIjNS_9allocatorIjEEE9__end_capB7v160006Ev, symObjAddr: 0x8C80, symBinAddr: 0x10000B988, symSize: 0x28 }
  - { offsetInCU: 0x1EF75, offset: 0x1EF75, size: 0x8, addend: 0x0, symName: __ZNKSt3__117__compressed_pairIPjNS_9allocatorIjEEE5firstB7v160006Ev, symObjAddr: 0x8CA8, symBinAddr: 0x10000B9B0, symSize: 0x24 }
  - { offsetInCU: 0x1EF9B, offset: 0x1EF9B, size: 0x8, addend: 0x0, symName: __ZNKSt3__122__compressed_pair_elemIPjLi0ELb0EE5__getB7v160006Ev, symObjAddr: 0x8CCC, symBinAddr: 0x10000B9D4, symSize: 0x14 }
  - { offsetInCU: 0x1EFC1, offset: 0x1EFC1, size: 0x8, addend: 0x0, symName: __ZNSt3__16vectorI4FaceNS_9allocatorIS1_EEE11__make_iterB7v160006EPS1_, symObjAddr: 0x8CE0, symBinAddr: 0x10000B9E8, symSize: 0x34 }
  - { offsetInCU: 0x1EFF6, offset: 0x1EFF6, size: 0x8, addend: 0x0, symName: __ZNSt3__111__wrap_iterIP4FaceEC1B7v160006EPKvS2_, symObjAddr: 0x8D14, symBinAddr: 0x10000BA1C, symSize: 0x3C }
  - { offsetInCU: 0x1F03C, offset: 0x1F03C, size: 0x8, addend: 0x0, symName: __ZNSt3__111__wrap_iterIP4FaceEC2B7v160006EPKvS2_, symObjAddr: 0x8D50, symBinAddr: 0x10000BA58, symSize: 0x24 }
  - { offsetInCU: 0x1F082, offset: 0x1F082, size: 0x8, addend: 0x0, symName: __ZNSt3__16vectorIjNS_9allocatorIjEEE9__end_capB7v160006Ev, symObjAddr: 0x8D74, symBinAddr: 0x10000BA7C, symSize: 0x28 }
  - { offsetInCU: 0x1F0AE, offset: 0x1F0AE, size: 0x8, addend: 0x0, symName: __ZNSt3__16vectorIjNS_9allocatorIjEEE22__construct_one_at_endB7v160006IJjEEEvDpOT_, symObjAddr: 0x8D9C, symBinAddr: 0x10000BAA4, symSize: 0x90 }
  - { offsetInCU: 0x1F0FD, offset: 0x1F0FD, size: 0x8, addend: 0x0, symName: __ZNSt3__16vectorIjNS_9allocatorIjEEE21__push_back_slow_pathIjEEvOT_, symObjAddr: 0x8E2C, symBinAddr: 0x10000BB34, symSize: 0xD8 }
  - { offsetInCU: 0x1F15B, offset: 0x1F15B, size: 0x8, addend: 0x0, symName: __ZNSt3__117__compressed_pairIPjNS_9allocatorIjEEE5firstB7v160006Ev, symObjAddr: 0x8F04, symBinAddr: 0x10000BC0C, symSize: 0x24 }
  - { offsetInCU: 0x1F181, offset: 0x1F181, size: 0x8, addend: 0x0, symName: __ZNSt3__122__compressed_pair_elemIPjLi0ELb0EE5__getB7v160006Ev, symObjAddr: 0x8F28, symBinAddr: 0x10000BC30, symSize: 0x14 }
  - { offsetInCU: 0x1F1C0, offset: 0x1F1C0, size: 0x8, addend: 0x0, symName: __ZNSt3__16vectorIjNS_9allocatorIjEEE21_ConstructTransactionC1B7v160006ERS3_m, symObjAddr: 0x8F3C, symBinAddr: 0x10000BC44, symSize: 0x3C }
  - { offsetInCU: 0x1F208, offset: 0x1F208, size: 0x8, addend: 0x0, symName: __ZNSt3__116allocator_traitsINS_9allocatorIjEEE9constructB7v160006IjJjEvEEvRS2_PT_DpOT0_, symObjAddr: 0x8F78, symBinAddr: 0x10000BC80, symSize: 0x34 }
  - { offsetInCU: 0x1F25F, offset: 0x1F25F, size: 0x8, addend: 0x0, symName: __ZNSt3__16vectorIjNS_9allocatorIjEEE21_ConstructTransactionD1B7v160006Ev, symObjAddr: 0x8FAC, symBinAddr: 0x10000BCB4, symSize: 0x2C }
  - { offsetInCU: 0x1F289, offset: 0x1F289, size: 0x8, addend: 0x0, symName: __ZNSt3__16vectorIjNS_9allocatorIjEEE21_ConstructTransactionC2B7v160006ERS3_m, symObjAddr: 0x8FD8, symBinAddr: 0x10000BCE0, symSize: 0x44 }
  - { offsetInCU: 0x1F2D1, offset: 0x1F2D1, size: 0x8, addend: 0x0, symName: __ZNSt3__19allocatorIjE9constructB7v160006IjJjEEEvPT_DpOT0_, symObjAddr: 0x901C, symBinAddr: 0x10000BD24, symSize: 0x28 }
  - { offsetInCU: 0x1F327, offset: 0x1F327, size: 0x8, addend: 0x0, symName: __ZNSt3__16vectorIjNS_9allocatorIjEEE21_ConstructTransactionD2B7v160006Ev, symObjAddr: 0x9044, symBinAddr: 0x10000BD4C, symSize: 0x20 }
  - { offsetInCU: 0x1F351, offset: 0x1F351, size: 0x8, addend: 0x0, symName: __ZNKSt3__16vectorIjNS_9allocatorIjEEE11__recommendB7v160006Em, symObjAddr: 0x9064, symBinAddr: 0x10000BD6C, symSize: 0xB4 }
  - { offsetInCU: 0x1F3A6, offset: 0x1F3A6, size: 0x8, addend: 0x0, symName: __ZNSt3__114__split_bufferIjRNS_9allocatorIjEEEC1EmmS3_, symObjAddr: 0x9118, symBinAddr: 0x10000BE20, symSize: 0x44 }
  - { offsetInCU: 0x1F3FC, offset: 0x1F3FC, size: 0x8, addend: 0x0, symName: __ZNSt3__114__split_bufferIjRNS_9allocatorIjEEED1Ev, symObjAddr: 0x9274, symBinAddr: 0x10000BF7C, symSize: 0x2C }
  - { offsetInCU: 0x1F428, offset: 0x1F428, size: 0x8, addend: 0x0, symName: __ZNKSt3__16vectorIjNS_9allocatorIjEEE8max_sizeEv, symObjAddr: 0x92A0, symBinAddr: 0x10000BFA8, symSize: 0x60 }
  - { offsetInCU: 0x1F450, offset: 0x1F450, size: 0x8, addend: 0x0, symName: __ZNKSt3__16vectorIjNS_9allocatorIjEEE20__throw_length_errorB7v160006Ev, symObjAddr: 0x9300, symBinAddr: 0x10000C008, symSize: 0x1C }
  - { offsetInCU: 0x1F480, offset: 0x1F480, size: 0x8, addend: 0x0, symName: __ZNSt3__116allocator_traitsINS_9allocatorIjEEE8max_sizeB7v160006IS2_vEEmRKS2_, symObjAddr: 0x931C, symBinAddr: 0x10000C024, symSize: 0x24 }
  - { offsetInCU: 0x1F4AE, offset: 0x1F4AE, size: 0x8, addend: 0x0, symName: __ZNKSt3__16vectorIjNS_9allocatorIjEEE7__allocB7v160006Ev, symObjAddr: 0x9340, symBinAddr: 0x10000C048, symSize: 0x28 }
  - { offsetInCU: 0x1F4D4, offset: 0x1F4D4, size: 0x8, addend: 0x0, symName: __ZNKSt3__19allocatorIjE8max_sizeB7v160006Ev, symObjAddr: 0x9368, symBinAddr: 0x10000C070, symSize: 0x14 }
  - { offsetInCU: 0x1F4FA, offset: 0x1F4FA, size: 0x8, addend: 0x0, symName: __ZNKSt3__117__compressed_pairIPjNS_9allocatorIjEEE6secondB7v160006Ev, symObjAddr: 0x937C, symBinAddr: 0x10000C084, symSize: 0x24 }
  - { offsetInCU: 0x1F520, offset: 0x1F520, size: 0x8, addend: 0x0, symName: __ZNKSt3__122__compressed_pair_elemINS_9allocatorIjEELi1ELb1EE5__getB7v160006Ev, symObjAddr: 0x93A0, symBinAddr: 0x10000C0A8, symSize: 0x14 }
  - { offsetInCU: 0x1F546, offset: 0x1F546, size: 0x8, addend: 0x0, symName: __ZNSt3__114__split_bufferIjRNS_9allocatorIjEEEC2EmmS3_, symObjAddr: 0x93B4, symBinAddr: 0x10000C0BC, symSize: 0xD4 }
  - { offsetInCU: 0x1F5B9, offset: 0x1F5B9, size: 0x8, addend: 0x0, symName: __ZNSt3__117__compressed_pairIPjRNS_9allocatorIjEEEC1B7v160006IDnS4_EEOT_OT0_, symObjAddr: 0x9488, symBinAddr: 0x10000C190, symSize: 0x3C }
  - { offsetInCU: 0x1F611, offset: 0x1F611, size: 0x8, addend: 0x0, symName: __ZNSt3__114__split_bufferIjRNS_9allocatorIjEEE7__allocB7v160006Ev, symObjAddr: 0x9504, symBinAddr: 0x10000C20C, symSize: 0x28 }
  - { offsetInCU: 0x1F637, offset: 0x1F637, size: 0x8, addend: 0x0, symName: __ZNSt3__114__split_bufferIjRNS_9allocatorIjEEE9__end_capB7v160006Ev, symObjAddr: 0x952C, symBinAddr: 0x10000C234, symSize: 0x28 }
  - { offsetInCU: 0x1F65D, offset: 0x1F65D, size: 0x8, addend: 0x0, symName: __ZNSt3__117__compressed_pairIPjRNS_9allocatorIjEEEC2B7v160006IDnS4_EEOT_OT0_, symObjAddr: 0x9554, symBinAddr: 0x10000C25C, symSize: 0x48 }
  - { offsetInCU: 0x1F6B5, offset: 0x1F6B5, size: 0x8, addend: 0x0, symName: __ZNSt3__122__compressed_pair_elemIRNS_9allocatorIjEELi1ELb0EEC2B7v160006IS3_vEEOT_, symObjAddr: 0x959C, symBinAddr: 0x10000C2A4, symSize: 0x20 }
  - { offsetInCU: 0x1F6F7, offset: 0x1F6F7, size: 0x8, addend: 0x0, symName: __ZNSt3__19allocatorIjE8allocateB7v160006Em, symObjAddr: 0x95BC, symBinAddr: 0x10000C2C4, symSize: 0x58 }
  - { offsetInCU: 0x1F72B, offset: 0x1F72B, size: 0x8, addend: 0x0, symName: __ZNSt3__117__compressed_pairIPjRNS_9allocatorIjEEE6secondB7v160006Ev, symObjAddr: 0x9614, symBinAddr: 0x10000C31C, symSize: 0x28 }
  - { offsetInCU: 0x1F751, offset: 0x1F751, size: 0x8, addend: 0x0, symName: __ZNSt3__122__compressed_pair_elemIRNS_9allocatorIjEELi1ELb0EE5__getB7v160006Ev, symObjAddr: 0x963C, symBinAddr: 0x10000C344, symSize: 0x18 }
  - { offsetInCU: 0x1F777, offset: 0x1F777, size: 0x8, addend: 0x0, symName: __ZNSt3__117__compressed_pairIPjRNS_9allocatorIjEEE5firstB7v160006Ev, symObjAddr: 0x9654, symBinAddr: 0x10000C35C, symSize: 0x24 }
  - { offsetInCU: 0x1F79D, offset: 0x1F79D, size: 0x8, addend: 0x0, symName: __ZNSt3__116reverse_iteratorIPjEC1B7v160006ES1_, symObjAddr: 0x96F0, symBinAddr: 0x10000C3F8, symSize: 0x34 }
  - { offsetInCU: 0x1F7D5, offset: 0x1F7D5, size: 0x8, addend: 0x0, symName: __ZNKSt3__116reverse_iteratorIPjE4baseB7v160006Ev, symObjAddr: 0x9724, symBinAddr: 0x10000C42C, symSize: 0x18 }
  - { offsetInCU: 0x1F7FB, offset: 0x1F7FB, size: 0x8, addend: 0x0, symName: __ZNKSt3__16vectorIjNS_9allocatorIjEEE14__annotate_newB7v160006Em, symObjAddr: 0x9778, symBinAddr: 0x10000C480, symSize: 0xAC }
  - { offsetInCU: 0x1F84A, offset: 0x1F84A, size: 0x8, addend: 0x0, symName: __ZNKSt3__111__move_loopINS_17_ClassicAlgPolicyEEclB7v160006INS_16reverse_iteratorIPjEES6_S6_EENS_4pairIT_T1_EES8_T0_S9_, symObjAddr: 0x9B24, symBinAddr: 0x10000C82C, symSize: 0xA0 }
  - { offsetInCU: 0x1F8B5, offset: 0x1F8B5, size: 0x8, addend: 0x0, symName: __ZNSt3__18_IterOpsINS_17_ClassicAlgPolicyEE11__iter_moveB7v160006IRNS_16reverse_iteratorIPjEEEENS_9enable_ifIXsr12is_referenceIDTdeclsr3stdE7declvalIRT_EEEEE5valueEDTclsr3stdE4movedeclsr3stdE7declvalISA_EEEEE4typeEOS9_, symObjAddr: 0x9D58, symBinAddr: 0x10000CA60, symSize: 0x28 }
  - { offsetInCU: 0x1F8E1, offset: 0x1F8E1, size: 0x8, addend: 0x0, symName: __ZNKSt3__116reverse_iteratorIPjEdeB7v160006Ev, symObjAddr: 0x9D80, symBinAddr: 0x10000CA88, symSize: 0x28 }
  - { offsetInCU: 0x1F915, offset: 0x1F915, size: 0x8, addend: 0x0, symName: __ZNSt3__116reverse_iteratorIPjEppB7v160006Ev, symObjAddr: 0x9DA8, symBinAddr: 0x10000CAB0, symSize: 0x20 }
  - { offsetInCU: 0x1F93B, offset: 0x1F93B, size: 0x8, addend: 0x0, symName: __ZNSt3__18_IterOpsINS_17_ClassicAlgPolicyEE25__validate_iter_referenceB7v160006IRNS_16reverse_iteratorIPjEEEEvv, symObjAddr: 0x9DC8, symBinAddr: 0x10000CAD0, symSize: 0x4 }
  - { offsetInCU: 0x1F959, offset: 0x1F959, size: 0x8, addend: 0x0, symName: __ZNSt3__118__unwrap_iter_implINS_16reverse_iteratorIPjEELb0EE8__unwrapB7v160006ES3_, symObjAddr: 0x9DCC, symBinAddr: 0x10000CAD4, symSize: 0x24 }
  - { offsetInCU: 0x1F982, offset: 0x1F982, size: 0x8, addend: 0x0, symName: __ZNSt3__14pairINS_16reverse_iteratorIPjEES3_EC1B7v160006IS3_S3_LPv0EEEOT_OT0_, symObjAddr: 0x9DF0, symBinAddr: 0x10000CAF8, symSize: 0x3C }
  - { offsetInCU: 0x1F9E0, offset: 0x1F9E0, size: 0x8, addend: 0x0, symName: __ZNSt3__14pairINS_16reverse_iteratorIPjEES3_EC2B7v160006IS3_S3_LPv0EEEOT_OT0_, symObjAddr: 0x9E2C, symBinAddr: 0x10000CB34, symSize: 0x34 }
  - { offsetInCU: 0x1FA3E, offset: 0x1FA3E, size: 0x8, addend: 0x0, symName: __ZNSt3__118__unwrap_iter_implINS_16reverse_iteratorIPjEELb0EE8__rewrapB7v160006ES3_S3_, symObjAddr: 0x9E60, symBinAddr: 0x10000CB68, symSize: 0x2C }
  - { offsetInCU: 0x1FA6C, offset: 0x1FA6C, size: 0x8, addend: 0x0, symName: __ZNSt3__116reverse_iteratorIPjEC2B7v160006ES1_, symObjAddr: 0x9E8C, symBinAddr: 0x10000CB94, symSize: 0x28 }
  - { offsetInCU: 0x1FAA4, offset: 0x1FAA4, size: 0x8, addend: 0x0, symName: __ZNSt3__114__split_bufferIjRNS_9allocatorIjEEED2Ev, symObjAddr: 0x9EB4, symBinAddr: 0x10000CBBC, symSize: 0x8C }
  - { offsetInCU: 0x1FAD0, offset: 0x1FAD0, size: 0x8, addend: 0x0, symName: __ZNSt3__114__split_bufferIjRNS_9allocatorIjEEE5clearB7v160006Ev, symObjAddr: 0x9F40, symBinAddr: 0x10000CC48, symSize: 0x28 }
  - { offsetInCU: 0x1FAF6, offset: 0x1FAF6, size: 0x8, addend: 0x0, symName: __ZNKSt3__114__split_bufferIjRNS_9allocatorIjEEE8capacityB7v160006Ev, symObjAddr: 0x9F68, symBinAddr: 0x10000CC70, symSize: 0x40 }
  - { offsetInCU: 0x1FB1C, offset: 0x1FB1C, size: 0x8, addend: 0x0, symName: __ZNSt3__114__split_bufferIjRNS_9allocatorIjEEE17__destruct_at_endB7v160006EPj, symObjAddr: 0x9FA8, symBinAddr: 0x10000CCB0, symSize: 0x2C }
  - { offsetInCU: 0x1FB50, offset: 0x1FB50, size: 0x8, addend: 0x0, symName: __ZNSt3__114__split_bufferIjRNS_9allocatorIjEEE17__destruct_at_endB7v160006EPjNS_17integral_constantIbLb0EEE, symObjAddr: 0x9FD4, symBinAddr: 0x10000CCDC, symSize: 0x80 }
  - { offsetInCU: 0x1FB91, offset: 0x1FB91, size: 0x8, addend: 0x0, symName: __ZNKSt3__114__split_bufferIjRNS_9allocatorIjEEE9__end_capB7v160006Ev, symObjAddr: 0xA054, symBinAddr: 0x10000CD5C, symSize: 0x28 }
  - { offsetInCU: 0x1FBB7, offset: 0x1FBB7, size: 0x8, addend: 0x0, symName: __ZNKSt3__117__compressed_pairIPjRNS_9allocatorIjEEE5firstB7v160006Ev, symObjAddr: 0xA07C, symBinAddr: 0x10000CD84, symSize: 0x24 }
  - { offsetInCU: 0x1FBDD, offset: 0x1FBDD, size: 0x8, addend: 0x0, symName: __ZNSt3__16vectorIjNS_9allocatorIjEEE22__construct_one_at_endB7v160006IJRKjEEEvDpOT_, symObjAddr: 0xA0A0, symBinAddr: 0x10000CDA8, symSize: 0x90 }
  - { offsetInCU: 0x1FC2C, offset: 0x1FC2C, size: 0x8, addend: 0x0, symName: __ZNSt3__16vectorIjNS_9allocatorIjEEE21__push_back_slow_pathIRKjEEvOT_, symObjAddr: 0xA130, symBinAddr: 0x10000CE38, symSize: 0xD8 }
  - { offsetInCU: 0x1FC8A, offset: 0x1FC8A, size: 0x8, addend: 0x0, symName: __ZNSt3__116allocator_traitsINS_9allocatorIjEEE9constructB7v160006IjJRKjEvEEvRS2_PT_DpOT0_, symObjAddr: 0xA208, symBinAddr: 0x10000CF10, symSize: 0x34 }
  - { offsetInCU: 0x1FCE1, offset: 0x1FCE1, size: 0x8, addend: 0x0, symName: __ZNSt3__19allocatorIjE9constructB7v160006IjJRKjEEEvPT_DpOT0_, symObjAddr: 0xA23C, symBinAddr: 0x10000CF44, symSize: 0x28 }
  - { offsetInCU: 0x927A, offset: 0x291CD, size: 0x8, addend: 0x0, symName: __ZNSt3__16copy_nB7v160006IPKcmPcEENS_9enable_ifIXsr33__is_cpp17_random_access_iteratorIT_EE5valueET1_E4typeES5_T0_S6_, symObjAddr: 0x23DC, symBinAddr: 0x10000DF70, symSize: 0x44 }
  - { offsetInCU: 0xA8EB, offset: 0x2A83E, size: 0x8, addend: 0x0, symName: __ZNSt3__1plB7v160006IcNS_11char_traitsIcEENS_9allocatorIcEEEENS_12basic_stringIT_T0_T1_EERKS9_PKS6_, symObjAddr: 0x8D0, symBinAddr: 0x10000D5EC, symSize: 0x11C }
  - { offsetInCU: 0xA997, offset: 0x2A8EA, size: 0x8, addend: 0x0, symName: __ZNSt3__115__debug_db_swapB7v160006INS_12basic_stringIcNS_11char_traitsIcEENS_9allocatorIcEEEEEEvPT_S8_, symObjAddr: 0xFB8, symBinAddr: 0x10000D9A4, symSize: 0x14 }
  - { offsetInCU: 0xA9D6, offset: 0x2A929, size: 0x8, addend: 0x0, symName: __ZNSt3__14copyB7v160006IPKcPcEET0_T_S5_S4_, symObjAddr: 0x2420, symBinAddr: 0x10000DFB4, symSize: 0x40 }
  - { offsetInCU: 0xAA30, offset: 0x2A983, size: 0x8, addend: 0x0, symName: __ZNSt3__16__copyB7v160006INS_17_ClassicAlgPolicyEPKcS3_PcEENS_4pairIT0_T2_EES6_T1_S7_, symObjAddr: 0x2460, symBinAddr: 0x10000DFF4, symSize: 0x44 }
  - { offsetInCU: 0xAA9C, offset: 0x2A9EF, size: 0x8, addend: 0x0, symName: __ZNSt3__123__dispatch_copy_or_moveB7v160006INS_17_ClassicAlgPolicyENS_11__copy_loopIS1_EENS_14__copy_trivialEPKcS6_PcEENS_4pairIT2_T4_EES9_T3_SA_, symObjAddr: 0x24A4, symBinAddr: 0x10000E038, symSize: 0x44 }
  - { offsetInCU: 0xAB1A, offset: 0x2AA6D, size: 0x8, addend: 0x0, symName: __ZNSt3__121__unwrap_and_dispatchB7v160006INS_10__overloadINS_11__copy_loopINS_17_ClassicAlgPolicyEEENS_14__copy_trivialEEEPKcS8_PcLi0EEENS_4pairIT0_T2_EESB_T1_SC_, symObjAddr: 0x24E8, symBinAddr: 0x10000E07C, symSize: 0xB4 }
  - { offsetInCU: 0xABA8, offset: 0x2AAFB, size: 0x8, addend: 0x0, symName: __ZNSt3__114__unwrap_rangeB7v160006IPKcS2_EENS_4pairIT0_S4_EET_S6_, symObjAddr: 0x259C, symBinAddr: 0x10000E130, symSize: 0x60 }
  - { offsetInCU: 0xAD3D, offset: 0x2AC90, size: 0x8, addend: 0x0, symName: __ZNSt3__113__unwrap_iterB7v160006IPcNS_18__unwrap_iter_implIS1_Lb1EEELi0EEEDTclsrT0_8__unwrapclsr3stdE7declvalIT_EEEES5_, symObjAddr: 0x2644, symBinAddr: 0x10000E1D8, symSize: 0x24 }
  - { offsetInCU: 0xAD81, offset: 0x2ACD4, size: 0x8, addend: 0x0, symName: __ZNSt3__19make_pairB7v160006IPKcPcEENS_4pairINS_18__unwrap_ref_decayIT_E4typeENS5_IT0_E4typeEEEOS6_OS9_, symObjAddr: 0x2668, symBinAddr: 0x10000E1FC, symSize: 0x38 }
  - { offsetInCU: 0xADD0, offset: 0x2AD23, size: 0x8, addend: 0x0, symName: __ZNSt3__114__rewrap_rangeB7v160006IPKcS2_EET_S3_T0_, symObjAddr: 0x26A0, symBinAddr: 0x10000E234, symSize: 0x2C }
  - { offsetInCU: 0xAE1C, offset: 0x2AD6F, size: 0x8, addend: 0x0, symName: __ZNSt3__113__rewrap_iterB7v160006IPcS1_NS_18__unwrap_iter_implIS1_Lb1EEEEET_S4_T0_, symObjAddr: 0x26CC, symBinAddr: 0x10000E260, symSize: 0x3C }
  - { offsetInCU: 0xAE71, offset: 0x2ADC4, size: 0x8, addend: 0x0, symName: __ZNSt3__19make_pairB7v160006IPKcS2_EENS_4pairINS_18__unwrap_ref_decayIT_E4typeENS4_IT0_E4typeEEEOS5_OS8_, symObjAddr: 0x2708, symBinAddr: 0x10000E29C, symSize: 0x38 }
  - { offsetInCU: 0xAEC0, offset: 0x2AE13, size: 0x8, addend: 0x0, symName: __ZNSt3__113__unwrap_iterB7v160006IPKcNS_18__unwrap_iter_implIS2_Lb1EEELi0EEEDTclsrT0_8__unwrapclsr3stdE7declvalIT_EEEES6_, symObjAddr: 0x2740, symBinAddr: 0x10000E2D4, symSize: 0x24 }
  - { offsetInCU: 0xB02B, offset: 0x2AF7E, size: 0x8, addend: 0x0, symName: __ZNSt3__119__copy_trivial_implB7v160006IKccEENS_4pairIPT_PT0_EES4_S4_S6_, symObjAddr: 0x27F8, symBinAddr: 0x10000E38C, symSize: 0x7C }
  - { offsetInCU: 0xB093, offset: 0x2AFE6, size: 0x8, addend: 0x0, symName: __ZNSt3__19make_pairB7v160006IRPKcPcEENS_4pairINS_18__unwrap_ref_decayIT_E4typeENS6_IT0_E4typeEEEOS7_OSA_, symObjAddr: 0x2874, symBinAddr: 0x10000E408, symSize: 0x38 }
  - { offsetInCU: 0xB135, offset: 0x2B088, size: 0x8, addend: 0x0, symName: __ZNSt3__113__rewrap_iterB7v160006IPKcS2_NS_18__unwrap_iter_implIS2_Lb1EEEEET_S5_T0_, symObjAddr: 0x29B0, symBinAddr: 0x10000E544, symSize: 0x3C }
  - { offsetInCU: 0xB18A, offset: 0x2B0DD, size: 0x8, addend: 0x0, symName: __ZNSt3__16fill_nB7v160006IPcmcEET_S2_T0_RKT1_, symObjAddr: 0x2A7C, symBinAddr: 0x10000E610, symSize: 0x44 }
  - { offsetInCU: 0xB1ED, offset: 0x2B140, size: 0x8, addend: 0x0, symName: __ZNSt3__18__fill_nB7v160006IPcmcEET_S2_T0_RKT1_, symObjAddr: 0x2AC0, symBinAddr: 0x10000E654, symSize: 0x64 }
  - { offsetInCU: 0xB250, offset: 0x2B1A3, size: 0x8, addend: 0x0, symName: __ZNSt3__121__convert_to_integralB7v160006Em, symObjAddr: 0x2B24, symBinAddr: 0x10000E6B8, symSize: 0x14 }
  - { offsetInCU: 0xD706, offset: 0x2D659, size: 0x8, addend: 0x0, symName: __ZN6ShaderC2Ev, symObjAddr: 0x0, symBinAddr: 0x10000CF6C, symSize: 0x18 }
  - { offsetInCU: 0xD732, offset: 0x2D685, size: 0x8, addend: 0x0, symName: __ZN6ShaderC1Ev, symObjAddr: 0x18, symBinAddr: 0x10000CF84, symSize: 0x2C }
  - { offsetInCU: 0xD75E, offset: 0x2D6B1, size: 0x8, addend: 0x0, symName: __ZN6ShaderD2Ev, symObjAddr: 0x44, symBinAddr: 0x10000CFB0, symSize: 0x34 }
  - { offsetInCU: 0xD78A, offset: 0x2D6DD, size: 0x8, addend: 0x0, symName: __ZN6Shader11ClearShaderEv, symObjAddr: 0x78, symBinAddr: 0x10000CFE4, symSize: 0x5C }
  - { offsetInCU: 0xD7B2, offset: 0x2D705, size: 0x8, addend: 0x0, symName: __ZN6ShaderD1Ev, symObjAddr: 0xE0, symBinAddr: 0x10000D040, symSize: 0x2C }
  - { offsetInCU: 0xD7DE, offset: 0x2D731, size: 0x8, addend: 0x0, symName: __ZN6Shader15CreateFromFilesEPKcS1_, symObjAddr: 0x10C, symBinAddr: 0x10000D06C, symSize: 0xC8 }
  - { offsetInCU: 0xD85A, offset: 0x2D7AD, size: 0x8, addend: 0x0, symName: __ZN6Shader8ReadFileEPKc, symObjAddr: 0x1D4, symBinAddr: 0x10000D134, symSize: 0x20C }
  - { offsetInCU: 0xD8BE, offset: 0x2D811, size: 0x8, addend: 0x0, symName: __ZN6Shader14CompileShadersEPKcS1_, symObjAddr: 0x404, symBinAddr: 0x10000D340, symSize: 0x204 }
  - { offsetInCU: 0xDA20, offset: 0x2D973, size: 0x8, addend: 0x0, symName: __ZNSt3__112basic_stringIcNS_11char_traitsIcEENS_9allocatorIcEEEC1B7v160006IDnEEPKc, symObjAddr: 0x7CC, symBinAddr: 0x10000D544, symSize: 0x34 }
  - { offsetInCU: 0xDA5E, offset: 0x2D9B1, size: 0x8, addend: 0x0, symName: __ZNKSt3__19basic_iosIcNS_11char_traitsIcEEE3eofB7v160006Ev, symObjAddr: 0x800, symBinAddr: 0x10000D578, symSize: 0x28 }
  - { offsetInCU: 0xDA84, offset: 0x2D9D7, size: 0x8, addend: 0x0, symName: __ZNSt3__112basic_stringIcNS_11char_traitsIcEENS_9allocatorIcEEE6appendB7v160006ERKS5_, symObjAddr: 0x884, symBinAddr: 0x10000D5A0, symSize: 0x4C }
  - { offsetInCU: 0xDAB9, offset: 0x2DA0C, size: 0x8, addend: 0x0, symName: __ZNSt3__112basic_stringIcNS_11char_traitsIcEENS_9allocatorIcEEEC1B7v160006EOS5_, symObjAddr: 0xA44, symBinAddr: 0x10000D708, symSize: 0x34 }
  - { offsetInCU: 0xDAF7, offset: 0x2DA4A, size: 0x8, addend: 0x0, symName: __ZN6Shader9UseShaderEv, symObjAddr: 0xAB8, symBinAddr: 0x10000D73C, symSize: 0x34 }
  - { offsetInCU: 0xDB1F, offset: 0x2DA72, size: 0x8, addend: 0x0, symName: __ZN6Shader16CreateFromStringEPKcS1_, symObjAddr: 0xAEC, symBinAddr: 0x10000D770, symSize: 0x34 }
  - { offsetInCU: 0xDB63, offset: 0x2DAB6, size: 0x8, addend: 0x0, symName: __ZN6Shader9AddShaderEjPKcj, symObjAddr: 0xB20, symBinAddr: 0x10000D7A4, symSize: 0x180 }
  - { offsetInCU: 0xDC04, offset: 0x2DB57, size: 0x8, addend: 0x0, symName: __ZNSt3__112basic_stringIcNS_11char_traitsIcEENS_9allocatorIcEEEC2B7v160006EOS5_, symObjAddr: 0xF00, symBinAddr: 0x10000D924, symSize: 0x80 }
  - { offsetInCU: 0xDC3D, offset: 0x2DB90, size: 0x8, addend: 0x0, symName: __ZNSt3__112basic_stringIcNS_11char_traitsIcEENS_9allocatorIcEEEC2B7v160006IDnEEPKc, symObjAddr: 0x1294, symBinAddr: 0x10000D9B8, symSize: 0x60 }
  - { offsetInCU: 0xDC7B, offset: 0x2DBCE, size: 0x8, addend: 0x0, symName: __ZNKSt3__18ios_base3eofB7v160006Ev, symObjAddr: 0x134C, symBinAddr: 0x10000DA18, symSize: 0x24 }
  - { offsetInCU: 0xDCD0, offset: 0x2DC23, size: 0x8, addend: 0x0, symName: __ZNSt3__116allocator_traitsINS_9allocatorIcEEE37select_on_container_copy_constructionB7v160006IS2_vvEES2_RKS2_, symObjAddr: 0x1C58, symBinAddr: 0x10000DA3C, symSize: 0x10 }
  - { offsetInCU: 0xDCFF, offset: 0x2DC52, size: 0x8, addend: 0x0, symName: __ZNKSt3__112basic_stringIcNS_11char_traitsIcEENS_9allocatorIcEEE13get_allocatorB7v160006Ev, symObjAddr: 0x1C68, symBinAddr: 0x10000DA4C, symSize: 0x24 }
  - { offsetInCU: 0xDD25, offset: 0x2DC78, size: 0x8, addend: 0x0, symName: __ZNSt3__112basic_stringIcNS_11char_traitsIcEENS_9allocatorIcEEEC1B7v160006ENS_24__uninitialized_size_tagEmRKS4_, symObjAddr: 0x1C8C, symBinAddr: 0x10000DA70, symSize: 0x3C }
  - { offsetInCU: 0xDD78, offset: 0x2DCCB, size: 0x8, addend: 0x0, symName: __ZNSt3__111char_traitsIcE4copyEPcPKcm, symObjAddr: 0x1D30, symBinAddr: 0x10000DAAC, symSize: 0x5C }
  - { offsetInCU: 0xDDB7, offset: 0x2DD0A, size: 0x8, addend: 0x0, symName: __ZNSt3__111char_traitsIcE6assignEPcmc, symObjAddr: 0x1D8C, symBinAddr: 0x10000DB08, symSize: 0x44 }
  - { offsetInCU: 0xDDF6, offset: 0x2DD49, size: 0x8, addend: 0x0, symName: __ZNSt3__112basic_stringIcNS_11char_traitsIcEENS_9allocatorIcEEEC2B7v160006ENS_24__uninitialized_size_tagEmRKS4_, symObjAddr: 0x1DD0, symBinAddr: 0x10000DB4C, symSize: 0x118 }
  - { offsetInCU: 0xDE75, offset: 0x2DDC8, size: 0x8, addend: 0x0, symName: __ZNSt3__117__compressed_pairINS_12basic_stringIcNS_11char_traitsIcEENS_9allocatorIcEEE5__repES5_EC1B7v160006INS_18__default_init_tagERKS5_EEOT_OT0_, symObjAddr: 0x1EE8, symBinAddr: 0x10000DC64, symSize: 0x3C }
  - { offsetInCU: 0xDECD, offset: 0x2DE20, size: 0x8, addend: 0x0, symName: __ZNKSt3__112basic_stringIcNS_11char_traitsIcEENS_9allocatorIcEEE20__throw_length_errorB7v160006Ev, symObjAddr: 0x1F24, symBinAddr: 0x10000DCA0, symSize: 0x1C }
  - { offsetInCU: 0xDEF3, offset: 0x2DE46, size: 0x8, addend: 0x0, symName: __ZNSt3__112basic_stringIcNS_11char_traitsIcEENS_9allocatorIcEEE13__fits_in_ssoB7v160006Em, symObjAddr: 0x1F40, symBinAddr: 0x10000DCBC, symSize: 0x20 }
  - { offsetInCU: 0xDF17, offset: 0x2DE6A, size: 0x8, addend: 0x0, symName: __ZNSt3__112basic_stringIcNS_11char_traitsIcEENS_9allocatorIcEEE11__recommendB7v160006Em, symObjAddr: 0x1F60, symBinAddr: 0x10000DCDC, symSize: 0x84 }
  - { offsetInCU: 0xDF4A, offset: 0x2DE9D, size: 0x8, addend: 0x0, symName: __ZNSt3__116allocator_traitsINS_9allocatorIcEEE8allocateB7v160006ERS2_m, symObjAddr: 0x1FE4, symBinAddr: 0x10000DD60, symSize: 0x2C }
  - { offsetInCU: 0xDF7D, offset: 0x2DED0, size: 0x8, addend: 0x0, symName: __ZNSt3__112basic_stringIcNS_11char_traitsIcEENS_9allocatorIcEEE7__allocB7v160006Ev, symObjAddr: 0x2010, symBinAddr: 0x10000DD8C, symSize: 0x24 }
  - { offsetInCU: 0xDFA3, offset: 0x2DEF6, size: 0x8, addend: 0x0, symName: __ZNSt3__112basic_stringIcNS_11char_traitsIcEENS_9allocatorIcEEE16__begin_lifetimeB7v160006EPcm, symObjAddr: 0x2034, symBinAddr: 0x10000DDB0, symSize: 0x14 }
  - { offsetInCU: 0xDFD6, offset: 0x2DF29, size: 0x8, addend: 0x0, symName: __ZNSt3__112basic_stringIcNS_11char_traitsIcEENS_9allocatorIcEEE14__set_long_capB7v160006Em, symObjAddr: 0x2048, symBinAddr: 0x10000DDC4, symSize: 0x70 }
  - { offsetInCU: 0xE00B, offset: 0x2DF5E, size: 0x8, addend: 0x0, symName: __ZNSt3__112basic_stringIcNS_11char_traitsIcEENS_9allocatorIcEEE18__set_long_pointerB7v160006EPc, symObjAddr: 0x20B8, symBinAddr: 0x10000DE34, symSize: 0x38 }
  - { offsetInCU: 0xE040, offset: 0x2DF93, size: 0x8, addend: 0x0, symName: __ZNSt3__117__compressed_pairINS_12basic_stringIcNS_11char_traitsIcEENS_9allocatorIcEEE5__repES5_EC2B7v160006INS_18__default_init_tagERKS5_EEOT_OT0_, symObjAddr: 0x20F0, symBinAddr: 0x10000DE6C, symSize: 0x40 }
  - { offsetInCU: 0xE098, offset: 0x2DFEB, size: 0x8, addend: 0x0, symName: __ZNSt3__122__compressed_pair_elemINS_9allocatorIcEELi1ELb1EEC2B7v160006IRKS2_vEEOT_, symObjAddr: 0x2130, symBinAddr: 0x10000DEAC, symSize: 0x18 }
  - { offsetInCU: 0xE0DA, offset: 0x2E02D, size: 0x8, addend: 0x0, symName: __ZNSt3__112basic_stringIcNS_11char_traitsIcEENS_9allocatorIcEEE10__align_itB7v160006ILm16EEEmm, symObjAddr: 0x222C, symBinAddr: 0x10000DEC4, symSize: 0x1C }
  - { offsetInCU: 0xE108, offset: 0x2E05B, size: 0x8, addend: 0x0, symName: __ZNSt3__19allocatorIcE8allocateB7v160006Em, symObjAddr: 0x2248, symBinAddr: 0x10000DEE0, symSize: 0x58 }
  - { offsetInCU: 0xE13C, offset: 0x2E08F, size: 0x8, addend: 0x0, symName: __ZNSt3__117__compressed_pairINS_12basic_stringIcNS_11char_traitsIcEENS_9allocatorIcEEE5__repES5_E6secondB7v160006Ev, symObjAddr: 0x23A4, symBinAddr: 0x10000DF38, symSize: 0x24 }
  - { offsetInCU: 0xE162, offset: 0x2E0B5, size: 0x8, addend: 0x0, symName: __ZNSt3__122__compressed_pair_elemINS_9allocatorIcEELi1ELb1EE5__getB7v160006Ev, symObjAddr: 0x23C8, symBinAddr: 0x10000DF5C, symSize: 0x14 }
  - { offsetInCU: 0xE1AC, offset: 0x2E0FF, size: 0x8, addend: 0x0, symName: __ZNKSt3__114__copy_trivialclB7v160006IKccLi0EEENS_4pairIPT_PT0_EES5_S5_S7_, symObjAddr: 0x25FC, symBinAddr: 0x10000E190, symSize: 0x48 }
  - { offsetInCU: 0xE234, offset: 0x2E187, size: 0x8, addend: 0x0, symName: __ZNSt3__14pairIPKcS2_EC1B7v160006IS2_S2_LPv0EEEOT_OT0_, symObjAddr: 0x2764, symBinAddr: 0x10000E2F8, symSize: 0x3C }
  - { offsetInCU: 0xE292, offset: 0x2E1E5, size: 0x8, addend: 0x0, symName: __ZNSt3__14pairIPKcS2_EC2B7v160006IS2_S2_LPv0EEEOT_OT0_, symObjAddr: 0x27A0, symBinAddr: 0x10000E334, symSize: 0x34 }
  - { offsetInCU: 0xE2F0, offset: 0x2E243, size: 0x8, addend: 0x0, symName: __ZNSt3__118__unwrap_iter_implIPKcLb1EE8__unwrapB7v160006ES2_, symObjAddr: 0x27D4, symBinAddr: 0x10000E368, symSize: 0x24 }
  - { offsetInCU: 0xE31E, offset: 0x2E271, size: 0x8, addend: 0x0, symName: __ZNSt3__14pairIPKcPcEC1B7v160006IRS2_S3_LPv0EEEOT_OT0_, symObjAddr: 0x28AC, symBinAddr: 0x10000E440, symSize: 0x3C }
  - { offsetInCU: 0xE37C, offset: 0x2E2CF, size: 0x8, addend: 0x0, symName: __ZNSt3__14pairIPKcPcEC2B7v160006IRS2_S3_LPv0EEEOT_OT0_, symObjAddr: 0x28E8, symBinAddr: 0x10000E47C, symSize: 0x34 }
  - { offsetInCU: 0xE3DA, offset: 0x2E32D, size: 0x8, addend: 0x0, symName: __ZNSt3__118__unwrap_iter_implIPcLb1EE8__unwrapB7v160006ES1_, symObjAddr: 0x291C, symBinAddr: 0x10000E4B0, symSize: 0x24 }
  - { offsetInCU: 0xE3FD, offset: 0x2E350, size: 0x8, addend: 0x0, symName: __ZNSt3__14pairIPKcPcEC1B7v160006IS2_S3_LPv0EEEOT_OT0_, symObjAddr: 0x2940, symBinAddr: 0x10000E4D4, symSize: 0x3C }
  - { offsetInCU: 0xE45B, offset: 0x2E3AE, size: 0x8, addend: 0x0, symName: __ZNSt3__14pairIPKcPcEC2B7v160006IS2_S3_LPv0EEEOT_OT0_, symObjAddr: 0x297C, symBinAddr: 0x10000E510, symSize: 0x34 }
  - { offsetInCU: 0xE4B9, offset: 0x2E40C, size: 0x8, addend: 0x0, symName: __ZNSt3__118__unwrap_iter_implIPKcLb1EE8__rewrapB7v160006ES2_S2_, symObjAddr: 0x29EC, symBinAddr: 0x10000E580, symSize: 0x48 }
  - { offsetInCU: 0xE4EA, offset: 0x2E43D, size: 0x8, addend: 0x0, symName: __ZNSt3__118__unwrap_iter_implIPcLb1EE8__rewrapB7v160006ES1_S1_, symObjAddr: 0x2A34, symBinAddr: 0x10000E5C8, symSize: 0x48 }
  - { offsetInCU: 0x186, offset: 0x2E668, size: 0x8, addend: 0x0, symName: __ZN6WindowC2Ev, symObjAddr: 0x0, symBinAddr: 0x10000E6CC, symSize: 0x30 }
  - { offsetInCU: 0x1B2, offset: 0x2E694, size: 0x8, addend: 0x0, symName: __ZN6WindowC1Ev, symObjAddr: 0x30, symBinAddr: 0x10000E6FC, symSize: 0x2C }
  - { offsetInCU: 0x1DE, offset: 0x2E6C0, size: 0x8, addend: 0x0, symName: __ZN6WindowC2Eiiii, symObjAddr: 0x5C, symBinAddr: 0x10000E728, symSize: 0x44 }
  - { offsetInCU: 0x241, offset: 0x2E723, size: 0x8, addend: 0x0, symName: __ZN6WindowC1Eiiii, symObjAddr: 0xA0, symBinAddr: 0x10000E76C, symSize: 0x4C }
  - { offsetInCU: 0x2A4, offset: 0x2E786, size: 0x8, addend: 0x0, symName: __ZN6WindowD2Ev, symObjAddr: 0xEC, symBinAddr: 0x10000E7B8, symSize: 0x40 }
  - { offsetInCU: 0x2D0, offset: 0x2E7B2, size: 0x8, addend: 0x0, symName: __ZN6WindowD1Ev, symObjAddr: 0x138, symBinAddr: 0x10000E7F8, symSize: 0x2C }
  - { offsetInCU: 0x2FC, offset: 0x2E7DE, size: 0x8, addend: 0x0, symName: __ZN6Window10initialiseEv, symObjAddr: 0x164, symBinAddr: 0x10000E824, symSize: 0x190 }
  - { offsetInCU: 0x26, offset: 0x2E831, size: 0x8, addend: 0x0, symName: _stbi_failure_reason, symObjAddr: 0x0, symBinAddr: 0x10000E9B4, symSize: 0x24 }
  - { offsetInCU: 0x59, offset: 0x2E864, size: 0x8, addend: 0x0, symName: __ZL36stbi__vertically_flip_on_load_global, symObjAddr: 0x3ADD0, symBinAddr: 0x100038190, symSize: 0x0 }
  - { offsetInCU: 0x7B, offset: 0x2E886, size: 0x8, addend: 0x0, symName: __ZL21stbi__stdio_callbacks, symObjAddr: 0x1A628, symBinAddr: 0x100038010, symSize: 0x0 }
  - { offsetInCU: 0x107, offset: 0x2E912, size: 0x8, addend: 0x0, symName: __ZL22stbi__check_png_headerP13stbi__context, symObjAddr: 0x74AC, symBinAddr: 0x100015E60, symSize: 0x98 }
  - { offsetInCU: 0x133, offset: 0x2E93E, size: 0x8, addend: 0x0, symName: __ZZL22stbi__check_png_headerP13stbi__contextE7png_sig, symObjAddr: 0x1A6A8, symBinAddr: 0x100032B80, symSize: 0x0 }
  - { offsetInCU: 0x180, offset: 0x2E98B, size: 0x8, addend: 0x0, symName: __ZL20stbi__parse_png_fileP9stbi__pngii, symObjAddr: 0x79C8, symBinAddr: 0x10001637C, symSize: 0xE50 }
  - { offsetInCU: 0x1AC, offset: 0x2E9B7, size: 0x8, addend: 0x0, symName: __ZZL20stbi__parse_png_fileP9stbi__pngiiE13invalid_chunk, symObjAddr: 0x1A640, symBinAddr: 0x100038028, symSize: 0x0 }
  - { offsetInCU: 0x392, offset: 0x2EB9D, size: 0x8, addend: 0x0, symName: __ZL23stbi__depth_scale_table, symObjAddr: 0x1A6B0, symBinAddr: 0x100032B88, symSize: 0x0 }
  - { offsetInCU: 0x3B9, offset: 0x2EBC4, size: 0x8, addend: 0x0, symName: __ZL16first_row_filter, symObjAddr: 0x1A659, symBinAddr: 0x100038041, symSize: 0x0 }
  - { offsetInCU: 0x3D3, offset: 0x2EBDE, size: 0x8, addend: 0x0, symName: __ZL17stbi__shiftsignedjii, symObjAddr: 0xD254, symBinAddr: 0x10001BC08, symSize: 0x144 }
  - { offsetInCU: 0x3FF, offset: 0x2EC0A, size: 0x8, addend: 0x0, symName: __ZZL17stbi__shiftsignedjiiE9mul_table, symObjAddr: 0x1A660, symBinAddr: 0x100038048, symSize: 0x0 }
  - { offsetInCU: 0x416, offset: 0x2EC21, size: 0x8, addend: 0x0, symName: __ZZL17stbi__shiftsignedjiiE11shift_table, symObjAddr: 0x1A684, symBinAddr: 0x10003806C, symSize: 0x0 }
  - { offsetInCU: 0x461, offset: 0x2EC6C, size: 0x8, addend: 0x0, symName: __ZL20stbi__process_markerP10stbi__jpegi, symObjAddr: 0x10738, symBinAddr: 0x10001F0EC, symSize: 0x81C }
  - { offsetInCU: 0x48D, offset: 0x2EC98, size: 0x8, addend: 0x0, symName: __ZZL20stbi__process_markerP10stbi__jpegiE3tag, symObjAddr: 0x1A77B, symBinAddr: 0x100032C53, symSize: 0x0 }
  - { offsetInCU: 0x4A4, offset: 0x2ECAF, size: 0x8, addend: 0x0, symName: __ZZL20stbi__process_markerP10stbi__jpegiE3tag_0, symObjAddr: 0x1A780, symBinAddr: 0x100032C58, symSize: 0x0 }
  - { offsetInCU: 0x636, offset: 0x2EE41, size: 0x8, addend: 0x0, symName: __ZL19stbi__jpeg_dezigzag, symObjAddr: 0x1A72C, symBinAddr: 0x100032C04, symSize: 0x0 }
  - { offsetInCU: 0x650, offset: 0x2EE5B, size: 0x8, addend: 0x0, symName: __ZL26stbi__process_frame_headerP10stbi__jpegi, symObjAddr: 0x10F54, symBinAddr: 0x10001F908, symSize: 0xC44 }
  - { offsetInCU: 0x67C, offset: 0x2EE87, size: 0x8, addend: 0x0, symName: __ZZL26stbi__process_frame_headerP10stbi__jpegiE3rgb, symObjAddr: 0x1A786, symBinAddr: 0x100032C5E, symSize: 0x0 }
  - { offsetInCU: 0x736, offset: 0x2EF41, size: 0x8, addend: 0x0, symName: __ZL11stbi__bmask, symObjAddr: 0x1A78C, symBinAddr: 0x100032C64, symSize: 0x0 }
  - { offsetInCU: 0x76E, offset: 0x2EF79, size: 0x8, addend: 0x0, symName: __ZL11stbi__jbias, symObjAddr: 0x1A7D0, symBinAddr: 0x100032CA8, symSize: 0x0 }
  - { offsetInCU: 0x79A, offset: 0x2EFA5, size: 0x8, addend: 0x0, symName: __ZL15stbi__l2h_gamma, symObjAddr: 0x1A618, symBinAddr: 0x100038000, symSize: 0x0 }
  - { offsetInCU: 0x7BC, offset: 0x2EFC7, size: 0x8, addend: 0x0, symName: __ZL15stbi__l2h_scale, symObjAddr: 0x1A61C, symBinAddr: 0x100038004, symSize: 0x0 }
  - { offsetInCU: 0x7D7, offset: 0x2EFE2, size: 0x8, addend: 0x0, symName: __ZL17stbi__h2l_gamma_i, symObjAddr: 0x1A620, symBinAddr: 0x100038008, symSize: 0x0 }
  - { offsetInCU: 0x7F2, offset: 0x2EFFD, size: 0x8, addend: 0x0, symName: __ZL17stbi__h2l_scale_i, symObjAddr: 0x1A624, symBinAddr: 0x10003800C, symSize: 0x0 }
  - { offsetInCU: 0x80D, offset: 0x2F018, size: 0x8, addend: 0x0, symName: __ZL21stbi__zdefault_length, symObjAddr: 0x1A810, symBinAddr: 0x100032CE8, symSize: 0x0 }
  - { offsetInCU: 0x836, offset: 0x2F041, size: 0x8, addend: 0x0, symName: __ZL23stbi__zdefault_distance, symObjAddr: 0x1A930, symBinAddr: 0x100032E08, symSize: 0x0 }
  - { offsetInCU: 0x850, offset: 0x2F05B, size: 0x8, addend: 0x0, symName: __ZL27stbi__compute_huffman_codesP10stbi__zbuf, symObjAddr: 0x17C3C, symBinAddr: 0x1000265F0, symSize: 0x3D0 }
  - { offsetInCU: 0x87C, offset: 0x2F087, size: 0x8, addend: 0x0, symName: __ZZL27stbi__compute_huffman_codesP10stbi__zbufE15length_dezigzag, symObjAddr: 0x1A950, symBinAddr: 0x100032E28, symSize: 0x0 }
  - { offsetInCU: 0x988, offset: 0x2F193, size: 0x8, addend: 0x0, symName: __ZL18stbi__zlength_base, symObjAddr: 0x1A964, symBinAddr: 0x100032E3C, symSize: 0x0 }
  - { offsetInCU: 0x9AF, offset: 0x2F1BA, size: 0x8, addend: 0x0, symName: __ZL19stbi__zlength_extra, symObjAddr: 0x1A9E0, symBinAddr: 0x100032EB8, symSize: 0x0 }
  - { offsetInCU: 0x9CA, offset: 0x2F1D5, size: 0x8, addend: 0x0, symName: __ZL16stbi__zdist_base, symObjAddr: 0x1AA5C, symBinAddr: 0x100032F34, symSize: 0x0 }
  - { offsetInCU: 0x9F1, offset: 0x2F1FC, size: 0x8, addend: 0x0, symName: __ZL17stbi__zdist_extra, symObjAddr: 0x1AADC, symBinAddr: 0x100032FB4, symSize: 0x0 }
  - { offsetInCU: 0xA0C, offset: 0x2F217, size: 0x8, addend: 0x0, symName: __ZL34stbi__unpremultiply_on_load_global, symObjAddr: 0x3ADD4, symBinAddr: 0x100038194, symSize: 0x0 }
  - { offsetInCU: 0xA27, offset: 0x2F232, size: 0x8, addend: 0x0, symName: __ZL27stbi__de_iphone_flag_global, symObjAddr: 0x3ADD8, symBinAddr: 0x100038198, symSize: 0x0 }
  - { offsetInCU: 0x13FF, offset: 0x2FC0A, size: 0x8, addend: 0x0, symName: _stbi_failure_reason, symObjAddr: 0x0, symBinAddr: 0x10000E9B4, symSize: 0x24 }
  - { offsetInCU: 0x141A, offset: 0x2FC25, size: 0x8, addend: 0x0, symName: _stbi_image_free, symObjAddr: 0x24, symBinAddr: 0x10000E9D8, symSize: 0x24 }
  - { offsetInCU: 0x1441, offset: 0x2FC4C, size: 0x8, addend: 0x0, symName: _stbi_set_flip_vertically_on_load, symObjAddr: 0x48, symBinAddr: 0x10000E9FC, symSize: 0x1C }
  - { offsetInCU: 0x1468, offset: 0x2FC73, size: 0x8, addend: 0x0, symName: _stbi_set_flip_vertically_on_load_thread, symObjAddr: 0x64, symBinAddr: 0x10000EA18, symSize: 0x4C }
  - { offsetInCU: 0x148F, offset: 0x2FC9A, size: 0x8, addend: 0x0, symName: _stbi_load, symObjAddr: 0xB0, symBinAddr: 0x10000EA64, symSize: 0xB4 }
  - { offsetInCU: 0x1514, offset: 0x2FD1F, size: 0x8, addend: 0x0, symName: __ZL11stbi__fopenPKcS0_, symObjAddr: 0x164, symBinAddr: 0x10000EB18, symSize: 0x34 }
  - { offsetInCU: 0x1561, offset: 0x2FD6C, size: 0x8, addend: 0x0, symName: __ZL9stbi__errPKc, symObjAddr: 0x198, symBinAddr: 0x10000EB4C, symSize: 0x38 }
  - { offsetInCU: 0x1590, offset: 0x2FD9B, size: 0x8, addend: 0x0, symName: _stbi_load_from_file, symObjAddr: 0x1D0, symBinAddr: 0x10000EB84, symSize: 0xE4 }
  - { offsetInCU: 0x1617, offset: 0x2FE22, size: 0x8, addend: 0x0, symName: __ZL16stbi__start_fileP13stbi__contextP7__sFILE, symObjAddr: 0x2B4, symBinAddr: 0x10000EC68, symSize: 0x34 }
  - { offsetInCU: 0x1651, offset: 0x2FE5C, size: 0x8, addend: 0x0, symName: __ZL31stbi__load_and_postprocess_8bitP13stbi__contextPiS1_S1_i, symObjAddr: 0x2E8, symBinAddr: 0x10000EC9C, symSize: 0x1F4 }
  - { offsetInCU: 0x16F7, offset: 0x2FF02, size: 0x8, addend: 0x0, symName: _stbi_load_from_file_16, symObjAddr: 0x4DC, symBinAddr: 0x10000EE90, symSize: 0xE4 }
  - { offsetInCU: 0x177E, offset: 0x2FF89, size: 0x8, addend: 0x0, symName: __ZL32stbi__load_and_postprocess_16bitP13stbi__contextPiS1_S1_i, symObjAddr: 0x5C0, symBinAddr: 0x10000EF74, symSize: 0x1F8 }
  - { offsetInCU: 0x1824, offset: 0x3002F, size: 0x8, addend: 0x0, symName: _stbi_load_16, symObjAddr: 0x7B8, symBinAddr: 0x10000F16C, symSize: 0xB4 }
  - { offsetInCU: 0x18A9, offset: 0x300B4, size: 0x8, addend: 0x0, symName: _stbi_load_16_from_memory, symObjAddr: 0x86C, symBinAddr: 0x10000F220, symSize: 0xA0 }
  - { offsetInCU: 0x1930, offset: 0x3013B, size: 0x8, addend: 0x0, symName: __ZL15stbi__start_memP13stbi__contextPKhi, symObjAddr: 0x90C, symBinAddr: 0x10000F2C0, symSize: 0x60 }
  - { offsetInCU: 0x1979, offset: 0x30184, size: 0x8, addend: 0x0, symName: _stbi_load_16_from_callbacks, symObjAddr: 0x96C, symBinAddr: 0x10000F320, symSize: 0xA0 }
  - { offsetInCU: 0x1A00, offset: 0x3020B, size: 0x8, addend: 0x0, symName: __ZL21stbi__start_callbacksP13stbi__contextP17stbi_io_callbacksPv, symObjAddr: 0xA0C, symBinAddr: 0x10000F3C0, symSize: 0x9C }
  - { offsetInCU: 0x1A49, offset: 0x30254, size: 0x8, addend: 0x0, symName: _stbi_load_from_memory, symObjAddr: 0xAA8, symBinAddr: 0x10000F45C, symSize: 0xA0 }
  - { offsetInCU: 0x1AD0, offset: 0x302DB, size: 0x8, addend: 0x0, symName: _stbi_load_from_callbacks, symObjAddr: 0xB48, symBinAddr: 0x10000F4FC, symSize: 0xA0 }
  - { offsetInCU: 0x1B57, offset: 0x30362, size: 0x8, addend: 0x0, symName: _stbi_load_gif_from_memory, symObjAddr: 0xBE8, symBinAddr: 0x10000F59C, symSize: 0x134 }
  - { offsetInCU: 0x1C0F, offset: 0x3041A, size: 0x8, addend: 0x0, symName: __ZL19stbi__load_gif_mainP13stbi__contextPPiS1_S1_S1_S1_i, symObjAddr: 0xD1C, symBinAddr: 0x10000F6D0, symSize: 0x500 }
  - { offsetInCU: 0x1D5E, offset: 0x30569, size: 0x8, addend: 0x0, symName: __ZL26stbi__vertical_flip_slicesPviiii, symObjAddr: 0x121C, symBinAddr: 0x10000FBD0, symSize: 0xA4 }
  - { offsetInCU: 0x1DF2, offset: 0x305FD, size: 0x8, addend: 0x0, symName: _stbi_loadf_from_memory, symObjAddr: 0x12C0, symBinAddr: 0x10000FC74, symSize: 0xA0 }
  - { offsetInCU: 0x1E79, offset: 0x30684, size: 0x8, addend: 0x0, symName: __ZL16stbi__loadf_mainP13stbi__contextPiS1_S1_i, symObjAddr: 0x1360, symBinAddr: 0x10000FD14, symSize: 0x16C }
  - { offsetInCU: 0x1F1F, offset: 0x3072A, size: 0x8, addend: 0x0, symName: _stbi_loadf_from_callbacks, symObjAddr: 0x14CC, symBinAddr: 0x10000FE80, symSize: 0xA0 }
  - { offsetInCU: 0x1FA6, offset: 0x307B1, size: 0x8, addend: 0x0, symName: _stbi_loadf, symObjAddr: 0x156C, symBinAddr: 0x10000FF20, symSize: 0xB4 }
  - { offsetInCU: 0x202B, offset: 0x30836, size: 0x8, addend: 0x0, symName: _stbi_loadf_from_file, symObjAddr: 0x1620, symBinAddr: 0x10000FFD4, symSize: 0x98 }
  - { offsetInCU: 0x20A1, offset: 0x308AC, size: 0x8, addend: 0x0, symName: _stbi_is_hdr_from_memory, symObjAddr: 0x16B8, symBinAddr: 0x10001006C, symSize: 0x80 }
  - { offsetInCU: 0x20EA, offset: 0x308F5, size: 0x8, addend: 0x0, symName: __ZL14stbi__hdr_testP13stbi__context, symObjAddr: 0x1738, symBinAddr: 0x1000100EC, symSize: 0x70 }
  - { offsetInCU: 0x2128, offset: 0x30933, size: 0x8, addend: 0x0, symName: _stbi_is_hdr, symObjAddr: 0x17A8, symBinAddr: 0x10001015C, symSize: 0x64 }
  - { offsetInCU: 0x2171, offset: 0x3097C, size: 0x8, addend: 0x0, symName: _stbi_is_hdr_from_file, symObjAddr: 0x180C, symBinAddr: 0x1000101C0, symSize: 0x9C }
  - { offsetInCU: 0x21C9, offset: 0x309D4, size: 0x8, addend: 0x0, symName: _stbi_is_hdr_from_callbacks, symObjAddr: 0x18A8, symBinAddr: 0x10001025C, symSize: 0x80 }
  - { offsetInCU: 0x2212, offset: 0x30A1D, size: 0x8, addend: 0x0, symName: _stbi_ldr_to_hdr_gamma, symObjAddr: 0x1928, symBinAddr: 0x1000102DC, symSize: 0x1C }
  - { offsetInCU: 0x2239, offset: 0x30A44, size: 0x8, addend: 0x0, symName: _stbi_ldr_to_hdr_scale, symObjAddr: 0x1944, symBinAddr: 0x1000102F8, symSize: 0x1C }
  - { offsetInCU: 0x2260, offset: 0x30A6B, size: 0x8, addend: 0x0, symName: _stbi_hdr_to_ldr_gamma, symObjAddr: 0x1960, symBinAddr: 0x100010314, symSize: 0x24 }
  - { offsetInCU: 0x2287, offset: 0x30A92, size: 0x8, addend: 0x0, symName: _stbi_hdr_to_ldr_scale, symObjAddr: 0x1984, symBinAddr: 0x100010338, symSize: 0x24 }
  - { offsetInCU: 0x22AE, offset: 0x30AB9, size: 0x8, addend: 0x0, symName: _stbi_zlib_decode_malloc_guesssize, symObjAddr: 0x19A8, symBinAddr: 0x10001035C, symSize: 0x138 }
  - { offsetInCU: 0x2324, offset: 0x30B2F, size: 0x8, addend: 0x0, symName: __ZL12stbi__mallocm, symObjAddr: 0x1AE0, symBinAddr: 0x100010494, symSize: 0x24 }
  - { offsetInCU: 0x2353, offset: 0x30B5E, size: 0x8, addend: 0x0, symName: __ZL13stbi__do_zlibP10stbi__zbufPciii, symObjAddr: 0x1B04, symBinAddr: 0x1000104B8, symSize: 0x70 }
  - { offsetInCU: 0x23BE, offset: 0x30BC9, size: 0x8, addend: 0x0, symName: _stbi_zlib_decode_malloc, symObjAddr: 0x1B74, symBinAddr: 0x100010528, symSize: 0x38 }
  - { offsetInCU: 0x2407, offset: 0x30C12, size: 0x8, addend: 0x0, symName: _stbi_zlib_decode_malloc_guesssize_headerflag, symObjAddr: 0x1BAC, symBinAddr: 0x100010560, symSize: 0x13C }
  - { offsetInCU: 0x248C, offset: 0x30C97, size: 0x8, addend: 0x0, symName: _stbi_zlib_decode_buffer, symObjAddr: 0x1CE8, symBinAddr: 0x10001069C, symSize: 0xE8 }
  - { offsetInCU: 0x24F3, offset: 0x30CFE, size: 0x8, addend: 0x0, symName: _stbi_zlib_decode_noheader_malloc, symObjAddr: 0x1DD0, symBinAddr: 0x100010784, symSize: 0x134 }
  - { offsetInCU: 0x255A, offset: 0x30D65, size: 0x8, addend: 0x0, symName: _stbi_zlib_decode_noheader_buffer, symObjAddr: 0x1F04, symBinAddr: 0x1000108B8, symSize: 0xE8 }
  - { offsetInCU: 0x25C1, offset: 0x30DCC, size: 0x8, addend: 0x0, symName: _stbi_set_unpremultiply_on_load, symObjAddr: 0x1FEC, symBinAddr: 0x1000109A0, symSize: 0x1C }
  - { offsetInCU: 0x25E8, offset: 0x30DF3, size: 0x8, addend: 0x0, symName: _stbi_convert_iphone_png_to_rgb, symObjAddr: 0x2008, symBinAddr: 0x1000109BC, symSize: 0x1C }
  - { offsetInCU: 0x260F, offset: 0x30E1A, size: 0x8, addend: 0x0, symName: __Z34stbi__unpremultiply_on_load_threadi, symObjAddr: 0x2024, symBinAddr: 0x1000109D8, symSize: 0x4C }
  - { offsetInCU: 0x2639, offset: 0x30E44, size: 0x8, addend: 0x0, symName: _stbi_convert_iphone_png_to_rgb_thread, symObjAddr: 0x2070, symBinAddr: 0x100010A24, symSize: 0x4C }
  - { offsetInCU: 0x2660, offset: 0x30E6B, size: 0x8, addend: 0x0, symName: _stbi_info, symObjAddr: 0x20BC, symBinAddr: 0x100010A70, symSize: 0x94 }
  - { offsetInCU: 0x26D6, offset: 0x30EE1, size: 0x8, addend: 0x0, symName: _stbi_info_from_file, symObjAddr: 0x2150, symBinAddr: 0x100010B04, symSize: 0xB4 }
  - { offsetInCU: 0x275D, offset: 0x30F68, size: 0x8, addend: 0x0, symName: __ZL15stbi__info_mainP13stbi__contextPiS1_S1_, symObjAddr: 0x2204, symBinAddr: 0x100010BB8, symSize: 0x1F0 }
  - { offsetInCU: 0x27B9, offset: 0x30FC4, size: 0x8, addend: 0x0, symName: _stbi_is_16_bit, symObjAddr: 0x23F4, symBinAddr: 0x100010DA8, symSize: 0x7C }
  - { offsetInCU: 0x2802, offset: 0x3100D, size: 0x8, addend: 0x0, symName: _stbi_is_16_bit_from_file, symObjAddr: 0x2470, symBinAddr: 0x100010E24, symSize: 0x9C }
  - { offsetInCU: 0x285A, offset: 0x31065, size: 0x8, addend: 0x0, symName: __ZL16stbi__is_16_mainP13stbi__context, symObjAddr: 0x250C, symBinAddr: 0x100010EC0, symSize: 0x94 }
  - { offsetInCU: 0x2889, offset: 0x31094, size: 0x8, addend: 0x0, symName: _stbi_info_from_memory, symObjAddr: 0x25A0, symBinAddr: 0x100010F54, symSize: 0x98 }
  - { offsetInCU: 0x28FF, offset: 0x3110A, size: 0x8, addend: 0x0, symName: _stbi_info_from_callbacks, symObjAddr: 0x2638, symBinAddr: 0x100010FEC, symSize: 0x98 }
  - { offsetInCU: 0x2975, offset: 0x31180, size: 0x8, addend: 0x0, symName: _stbi_is_16_bit_from_memory, symObjAddr: 0x26D0, symBinAddr: 0x100011084, symSize: 0x80 }
  - { offsetInCU: 0x29BE, offset: 0x311C9, size: 0x8, addend: 0x0, symName: _stbi_is_16_bit_from_callbacks, symObjAddr: 0x2750, symBinAddr: 0x100011104, symSize: 0x80 }
  - { offsetInCU: 0x2A07, offset: 0x31212, size: 0x8, addend: 0x0, symName: __ZL16stbi__stdio_readPvPci, symObjAddr: 0x27D0, symBinAddr: 0x100011184, symSize: 0x38 }
  - { offsetInCU: 0x2A54, offset: 0x3125F, size: 0x8, addend: 0x0, symName: __ZL16stbi__stdio_skipPvi, symObjAddr: 0x2808, symBinAddr: 0x1000111BC, symSize: 0x60 }
  - { offsetInCU: 0x2A9D, offset: 0x312A8, size: 0x8, addend: 0x0, symName: __ZL15stbi__stdio_eofPv, symObjAddr: 0x2868, symBinAddr: 0x10001121C, symSize: 0x5C }
  - { offsetInCU: 0x2ACC, offset: 0x312D7, size: 0x8, addend: 0x0, symName: __ZL15stbi__load_mainP13stbi__contextPiS1_S1_iP17stbi__result_infoi, symObjAddr: 0x28C4, symBinAddr: 0x100011278, symSize: 0x314 }
  - { offsetInCU: 0x2B72, offset: 0x3137D, size: 0x8, addend: 0x0, symName: __ZL21stbi__convert_16_to_8Ptiii, symObjAddr: 0x2BD8, symBinAddr: 0x10001158C, symSize: 0xF8 }
  - { offsetInCU: 0x2BFB, offset: 0x31406, size: 0x8, addend: 0x0, symName: __ZL19stbi__vertical_flipPviii, symObjAddr: 0x2CD0, symBinAddr: 0x100011684, symSize: 0x1B0 }
  - { offsetInCU: 0x2CED, offset: 0x314F8, size: 0x8, addend: 0x0, symName: __ZL14stbi__png_testP13stbi__context, symObjAddr: 0x2E80, symBinAddr: 0x100011834, symSize: 0x34 }
  - { offsetInCU: 0x2D2B, offset: 0x31536, size: 0x8, addend: 0x0, symName: __ZL14stbi__png_loadP13stbi__contextPiS1_S1_iP17stbi__result_info, symObjAddr: 0x2EB4, symBinAddr: 0x100011868, symSize: 0x54 }
  - { offsetInCU: 0x2DB4, offset: 0x315BF, size: 0x8, addend: 0x0, symName: __ZL14stbi__bmp_testP13stbi__context, symObjAddr: 0x2F08, symBinAddr: 0x1000118BC, symSize: 0x34 }
  - { offsetInCU: 0x2DF2, offset: 0x315FD, size: 0x8, addend: 0x0, symName: __ZL14stbi__bmp_loadP13stbi__contextPiS1_S1_iP17stbi__result_info, symObjAddr: 0x2F3C, symBinAddr: 0x1000118F0, symSize: 0x1328 }
  - { offsetInCU: 0x3150, offset: 0x3195B, size: 0x8, addend: 0x0, symName: __ZL14stbi__gif_testP13stbi__context, symObjAddr: 0x4264, symBinAddr: 0x100012C18, symSize: 0x34 }
  - { offsetInCU: 0x318E, offset: 0x31999, size: 0x8, addend: 0x0, symName: __ZL14stbi__gif_loadP13stbi__contextPiS1_S1_iP17stbi__result_info, symObjAddr: 0x4298, symBinAddr: 0x100012C4C, symSize: 0x184 }
  - { offsetInCU: 0x3227, offset: 0x31A32, size: 0x8, addend: 0x0, symName: __ZL14stbi__psd_testP13stbi__context, symObjAddr: 0x441C, symBinAddr: 0x100012DD0, symSize: 0x48 }
  - { offsetInCU: 0x3265, offset: 0x31A70, size: 0x8, addend: 0x0, symName: __ZL14stbi__psd_loadP13stbi__contextPiS1_S1_iP17stbi__result_infoi, symObjAddr: 0x4464, symBinAddr: 0x100012E18, symSize: 0xC90 }
  - { offsetInCU: 0x34E9, offset: 0x31CF4, size: 0x8, addend: 0x0, symName: __ZL14stbi__pic_testP13stbi__context, symObjAddr: 0x50F4, symBinAddr: 0x100013AA8, symSize: 0x34 }
  - { offsetInCU: 0x3527, offset: 0x31D32, size: 0x8, addend: 0x0, symName: __ZL14stbi__pic_loadP13stbi__contextPiS1_S1_iP17stbi__result_info, symObjAddr: 0x5128, symBinAddr: 0x100013ADC, symSize: 0x2F0 }
  - { offsetInCU: 0x35EC, offset: 0x31DF7, size: 0x8, addend: 0x0, symName: __ZL15stbi__jpeg_testP13stbi__context, symObjAddr: 0x5418, symBinAddr: 0x100013DCC, symSize: 0x94 }
  - { offsetInCU: 0x3639, offset: 0x31E44, size: 0x8, addend: 0x0, symName: __ZL15stbi__jpeg_loadP13stbi__contextPiS1_S1_iP17stbi__result_info, symObjAddr: 0x54AC, symBinAddr: 0x100013E60, symSize: 0xC4 }
  - { offsetInCU: 0x36D1, offset: 0x31EDC, size: 0x8, addend: 0x0, symName: __ZL14stbi__pnm_testP13stbi__context, symObjAddr: 0x5570, symBinAddr: 0x100013F24, symSize: 0x90 }
  - { offsetInCU: 0x371E, offset: 0x31F29, size: 0x8, addend: 0x0, symName: __ZL14stbi__pnm_loadP13stbi__contextPiS1_S1_iP17stbi__result_info, symObjAddr: 0x5600, symBinAddr: 0x100013FB4, symSize: 0x2F8 }
  - { offsetInCU: 0x37A7, offset: 0x31FB2, size: 0x8, addend: 0x0, symName: __ZL14stbi__hdr_loadP13stbi__contextPiS1_S1_iP17stbi__result_info, symObjAddr: 0x58F8, symBinAddr: 0x1000142AC, symSize: 0xA18 }
  - { offsetInCU: 0x399C, offset: 0x321A7, size: 0x8, addend: 0x0, symName: __ZL16stbi__hdr_to_ldrPfiii, symObjAddr: 0x6310, symBinAddr: 0x100014CC4, symSize: 0x2D0 }
  - { offsetInCU: 0x3A6E, offset: 0x32279, size: 0x8, addend: 0x0, symName: __ZL14stbi__tga_testP13stbi__context, symObjAddr: 0x65E0, symBinAddr: 0x100014F94, symSize: 0x2A0 }
  - { offsetInCU: 0x3ADB, offset: 0x322E6, size: 0x8, addend: 0x0, symName: __ZL14stbi__tga_loadP13stbi__contextPiS1_S1_iP17stbi__result_info, symObjAddr: 0x6880, symBinAddr: 0x100015234, symSize: 0xC2C }
  - { offsetInCU: 0x3DCE, offset: 0x325D9, size: 0x8, addend: 0x0, symName: __ZL12stbi__rewindP13stbi__context, symObjAddr: 0x7544, symBinAddr: 0x100015EF8, symSize: 0x30 }
  - { offsetInCU: 0x3DF9, offset: 0x32604, size: 0x8, addend: 0x0, symName: __ZL10stbi__get8P13stbi__context, symObjAddr: 0x7574, symBinAddr: 0x100015F28, symSize: 0xA0 }
  - { offsetInCU: 0x3E28, offset: 0x32633, size: 0x8, addend: 0x0, symName: __ZL19stbi__refill_bufferP13stbi__context, symObjAddr: 0x7614, symBinAddr: 0x100015FC8, symSize: 0xE4 }
  - { offsetInCU: 0x3E62, offset: 0x3266D, size: 0x8, addend: 0x0, symName: __ZL12stbi__do_pngP9stbi__pngPiS1_S1_iP17stbi__result_info, symObjAddr: 0x76F8, symBinAddr: 0x1000160AC, symSize: 0x2D0 }
  - { offsetInCU: 0x3EEB, offset: 0x326F6, size: 0x8, addend: 0x0, symName: __ZL20stbi__convert_formatPhiijj, symObjAddr: 0x8818, symBinAddr: 0x1000171CC, symSize: 0x7C8 }
  - { offsetInCU: 0x3FAF, offset: 0x327BA, size: 0x8, addend: 0x0, symName: __ZL22stbi__convert_format16Ptiijj, symObjAddr: 0x9048, symBinAddr: 0x1000179FC, symSize: 0x7D4 }
  - { offsetInCU: 0x4073, offset: 0x3287E, size: 0x8, addend: 0x0, symName: __ZL22stbi__get_chunk_headerP13stbi__context, symObjAddr: 0x9884, symBinAddr: 0x100018238, symSize: 0x38 }
  - { offsetInCU: 0x40B1, offset: 0x328BC, size: 0x8, addend: 0x0, symName: __ZL10stbi__skipP13stbi__contexti, symObjAddr: 0x98BC, symBinAddr: 0x100018270, symSize: 0xF8 }
  - { offsetInCU: 0x4108, offset: 0x32913, size: 0x8, addend: 0x0, symName: __ZL13stbi__get32beP13stbi__context, symObjAddr: 0x99B4, symBinAddr: 0x100018368, symSize: 0x40 }
  - { offsetInCU: 0x4146, offset: 0x32951, size: 0x8, addend: 0x0, symName: __ZL13stbi__get16beP13stbi__context, symObjAddr: 0x99F4, symBinAddr: 0x1000183A8, symSize: 0x48 }
  - { offsetInCU: 0x4184, offset: 0x3298F, size: 0x8, addend: 0x0, symName: __ZL10stbi__getnP13stbi__contextPhi, symObjAddr: 0x9A3C, symBinAddr: 0x1000183F0, symSize: 0x158 }
  - { offsetInCU: 0x421A, offset: 0x32A25, size: 0x8, addend: 0x0, symName: __ZL22stbi__create_png_imageP9stbi__pngPhjiiii, symObjAddr: 0x9B94, symBinAddr: 0x100018548, symSize: 0x464 }
  - { offsetInCU: 0x43B9, offset: 0x32BC4, size: 0x8, addend: 0x0, symName: __ZL28stbi__compute_transparency16P9stbi__pngPti, symObjAddr: 0x9FF8, symBinAddr: 0x1000189AC, symSize: 0x1F4 }
  - { offsetInCU: 0x4442, offset: 0x32C4D, size: 0x8, addend: 0x0, symName: __ZL26stbi__compute_transparencyP9stbi__pngPhi, symObjAddr: 0xA1EC, symBinAddr: 0x100018BA0, symSize: 0x1F4 }
  - { offsetInCU: 0x44CB, offset: 0x32CD6, size: 0x8, addend: 0x0, symName: __ZL15stbi__de_iphoneP9stbi__png, symObjAddr: 0xA3E0, symBinAddr: 0x100018D94, symSize: 0x2BC }
  - { offsetInCU: 0x45B5, offset: 0x32DC0, size: 0x8, addend: 0x0, symName: __ZL24stbi__expand_png_paletteP9stbi__pngPhii, symObjAddr: 0xA69C, symBinAddr: 0x100019050, symSize: 0x240 }
  - { offsetInCU: 0x4696, offset: 0x32EA1, size: 0x8, addend: 0x0, symName: __ZL26stbi__create_png_image_rawP9stbi__pngPhjijjii, symObjAddr: 0xA8DC, symBinAddr: 0x100019290, symSize: 0x1A8C }
  - { offsetInCU: 0x48D4, offset: 0x330DF, size: 0x8, addend: 0x0, symName: __ZL17stbi__malloc_mad3iiii, symObjAddr: 0xC3BC, symBinAddr: 0x10001AD70, symSize: 0x88 }
  - { offsetInCU: 0x4930, offset: 0x3313B, size: 0x8, addend: 0x0, symName: __ZL21stbi__mad3sizes_validiiii, symObjAddr: 0xC444, symBinAddr: 0x10001ADF8, symSize: 0xAC }
  - { offsetInCU: 0x498C, offset: 0x33197, size: 0x8, addend: 0x0, symName: __ZL11stbi__paethiii, symObjAddr: 0xC4F0, symBinAddr: 0x10001AEA4, symSize: 0xE8 }
  - { offsetInCU: 0x4A15, offset: 0x33220, size: 0x8, addend: 0x0, symName: __ZL21stbi__mul2sizes_validii, symObjAddr: 0xC5D8, symBinAddr: 0x10001AF8C, symSize: 0x8C }
  - { offsetInCU: 0x4A53, offset: 0x3325E, size: 0x8, addend: 0x0, symName: __ZL20stbi__addsizes_validii, symObjAddr: 0xC664, symBinAddr: 0x10001B018, symSize: 0x58 }
  - { offsetInCU: 0x4A91, offset: 0x3329C, size: 0x8, addend: 0x0, symName: __ZL17stbi__malloc_mad2iii, symObjAddr: 0xC6BC, symBinAddr: 0x10001B070, symSize: 0x78 }
  - { offsetInCU: 0x4ADE, offset: 0x332E9, size: 0x8, addend: 0x0, symName: __ZL21stbi__mad2sizes_validiii, symObjAddr: 0xC734, symBinAddr: 0x10001B0E8, symSize: 0x74 }
  - { offsetInCU: 0x4B2B, offset: 0x33336, size: 0x8, addend: 0x0, symName: __ZL15stbi__compute_yiii, symObjAddr: 0xC7A8, symBinAddr: 0x10001B15C, symSize: 0x4C }
  - { offsetInCU: 0x4B78, offset: 0x33383, size: 0x8, addend: 0x0, symName: __ZL18stbi__compute_y_16iii, symObjAddr: 0xC7F4, symBinAddr: 0x10001B1A8, symSize: 0x4C }
  - { offsetInCU: 0x4BC5, offset: 0x333D0, size: 0x8, addend: 0x0, symName: __ZL18stbi__bmp_test_rawP13stbi__context, symObjAddr: 0xC840, symBinAddr: 0x10001B1F4, symSize: 0x130 }
  - { offsetInCU: 0x4C12, offset: 0x3341D, size: 0x8, addend: 0x0, symName: __ZL13stbi__get32leP13stbi__context, symObjAddr: 0xC970, symBinAddr: 0x10001B324, symSize: 0x40 }
  - { offsetInCU: 0x4C50, offset: 0x3345B, size: 0x8, addend: 0x0, symName: __ZL13stbi__get16leP13stbi__context, symObjAddr: 0xC9B0, symBinAddr: 0x10001B364, symSize: 0x48 }
  - { offsetInCU: 0x4C8E, offset: 0x33499, size: 0x8, addend: 0x0, symName: __ZL22stbi__bmp_parse_headerP13stbi__contextP14stbi__bmp_data, symObjAddr: 0xC9F8, symBinAddr: 0x10001B3AC, symSize: 0x6B4 }
  - { offsetInCU: 0x4D15, offset: 0x33520, size: 0x8, addend: 0x0, symName: __ZL14stbi__high_bitj, symObjAddr: 0xD0AC, symBinAddr: 0x10001BA60, symSize: 0x128 }
  - { offsetInCU: 0x4D53, offset: 0x3355E, size: 0x8, addend: 0x0, symName: __ZL14stbi__bitcountj, symObjAddr: 0xD1D4, symBinAddr: 0x10001BB88, symSize: 0x80 }
  - { offsetInCU: 0x4D82, offset: 0x3358D, size: 0x8, addend: 0x0, symName: __ZL27stbi__bmp_set_mask_defaultsP14stbi__bmp_datai, symObjAddr: 0xD398, symBinAddr: 0x10001BD4C, symSize: 0x11C }
  - { offsetInCU: 0x4DC0, offset: 0x335CB, size: 0x8, addend: 0x0, symName: __ZL18stbi__gif_test_rawP13stbi__context, symObjAddr: 0xD4B4, symBinAddr: 0x10001BE68, symSize: 0x108 }
  - { offsetInCU: 0x4DFE, offset: 0x33609, size: 0x8, addend: 0x0, symName: __ZL19stbi__gif_load_nextP13stbi__contextP9stbi__gifPiiPh, symObjAddr: 0xD5BC, symBinAddr: 0x10001BF70, symSize: 0xA60 }
  - { offsetInCU: 0x4F4B, offset: 0x33756, size: 0x8, addend: 0x0, symName: __ZL16stbi__gif_headerP13stbi__contextP9stbi__gifPii, symObjAddr: 0xE01C, symBinAddr: 0x10001C9D0, symSize: 0x24C }
  - { offsetInCU: 0x4FB6, offset: 0x337C1, size: 0x8, addend: 0x0, symName: __ZL26stbi__gif_parse_colortableP13stbi__contextPA4_hii, symObjAddr: 0xE268, symBinAddr: 0x10001CC1C, symSize: 0xD8 }
  - { offsetInCU: 0x501D, offset: 0x33828, size: 0x8, addend: 0x0, symName: __ZL24stbi__process_gif_rasterP13stbi__contextP9stbi__gif, symObjAddr: 0xE340, symBinAddr: 0x10001CCF4, symSize: 0x4E4 }
  - { offsetInCU: 0x512C, offset: 0x33937, size: 0x8, addend: 0x0, symName: __ZL18stbi__out_gif_codeP9stbi__gift, symObjAddr: 0xE824, symBinAddr: 0x10001D1D8, symSize: 0x2B0 }
  - { offsetInCU: 0x5193, offset: 0x3399E, size: 0x8, addend: 0x0, symName: __ZL20stbi__psd_decode_rleP13stbi__contextPhi, symObjAddr: 0xEAD4, symBinAddr: 0x10001D488, symSize: 0x1CC }
  - { offsetInCU: 0x522A, offset: 0x33A35, size: 0x8, addend: 0x0, symName: __ZL19stbi__pic_test_coreP13stbi__context, symObjAddr: 0xECA0, symBinAddr: 0x10001D654, symSize: 0xB4 }
  - { offsetInCU: 0x5268, offset: 0x33A73, size: 0x8, addend: 0x0, symName: __ZL13stbi__pic_is4P13stbi__contextPKc, symObjAddr: 0xED54, symBinAddr: 0x10001D708, symSize: 0x8C }
  - { offsetInCU: 0x52B5, offset: 0x33AC0, size: 0x8, addend: 0x0, symName: __ZL12stbi__at_eofP13stbi__context, symObjAddr: 0xEDE0, symBinAddr: 0x10001D794, symSize: 0xB0 }
  - { offsetInCU: 0x52E4, offset: 0x33AEF, size: 0x8, addend: 0x0, symName: __ZL19stbi__pic_load_coreP13stbi__contextiiPiPh, symObjAddr: 0xEE90, symBinAddr: 0x10001D844, symSize: 0x708 }
  - { offsetInCU: 0x54DB, offset: 0x33CE6, size: 0x8, addend: 0x0, symName: __ZL13stbi__readvalP13stbi__contextiPh, symObjAddr: 0xF598, symBinAddr: 0x10001DF4C, symSize: 0xEC }
  - { offsetInCU: 0x5546, offset: 0x33D51, size: 0x8, addend: 0x0, symName: __ZL13stbi__copyvaliPhPKh, symObjAddr: 0xF684, symBinAddr: 0x10001E038, symSize: 0x98 }
  - { offsetInCU: 0x55AD, offset: 0x33DB8, size: 0x8, addend: 0x0, symName: __ZL16stbi__setup_jpegP10stbi__jpeg, symObjAddr: 0xF71C, symBinAddr: 0x10001E0D0, symSize: 0x40 }
  - { offsetInCU: 0x55D8, offset: 0x33DE3, size: 0x8, addend: 0x0, symName: __ZL24stbi__decode_jpeg_headerP10stbi__jpegi, symObjAddr: 0xF75C, symBinAddr: 0x10001E110, symSize: 0x1FC }
  - { offsetInCU: 0x5625, offset: 0x33E30, size: 0x8, addend: 0x0, symName: __ZL16stbi__idct_blockPhiPs, symObjAddr: 0xF958, symBinAddr: 0x10001E30C, symSize: 0x8DC }
  - { offsetInCU: 0x5890, offset: 0x3409B, size: 0x8, addend: 0x0, symName: __ZL22stbi__YCbCr_to_RGB_rowPhPKhS1_S1_ii, symObjAddr: 0x10234, symBinAddr: 0x10001EBE8, symSize: 0x228 }
  - { offsetInCU: 0x597F, offset: 0x3418A, size: 0x8, addend: 0x0, symName: __ZL23stbi__resample_row_hv_2PhS_S_ii, symObjAddr: 0x1045C, symBinAddr: 0x10001EE10, symSize: 0x194 }
  - { offsetInCU: 0x5A17, offset: 0x34222, size: 0x8, addend: 0x0, symName: __ZL11stbi__clampi, symObjAddr: 0x105F0, symBinAddr: 0x10001EFA4, symSize: 0x74 }
  - { offsetInCU: 0x5A46, offset: 0x34251, size: 0x8, addend: 0x0, symName: __ZL16stbi__get_markerP10stbi__jpeg, symObjAddr: 0x10664, symBinAddr: 0x10001F018, symSize: 0xD4 }
  - { offsetInCU: 0x5A84, offset: 0x3428F, size: 0x8, addend: 0x0, symName: __ZL19stbi__build_huffmanP13stbi__huffmanPi, symObjAddr: 0x11B98, symBinAddr: 0x10002054C, symSize: 0x31C }
  - { offsetInCU: 0x5B47, offset: 0x34352, size: 0x8, addend: 0x0, symName: __ZL19stbi__build_fast_acPsP13stbi__huffman, symObjAddr: 0x11EB4, symBinAddr: 0x100020868, symSize: 0x1C0 }
  - { offsetInCU: 0x5C23, offset: 0x3442E, size: 0x8, addend: 0x0, symName: __ZL26stbi__free_jpeg_componentsP10stbi__jpegii, symObjAddr: 0x12074, symBinAddr: 0x100020A28, symSize: 0x20C }
  - { offsetInCU: 0x5C7F, offset: 0x3448A, size: 0x8, addend: 0x0, symName: __ZL15load_jpeg_imageP10stbi__jpegPiS1_S1_i, symObjAddr: 0x12280, symBinAddr: 0x100020C34, symSize: 0x10C8 }
  - { offsetInCU: 0x5EBC, offset: 0x346C7, size: 0x8, addend: 0x0, symName: __ZL23stbi__decode_jpeg_imageP10stbi__jpeg, symObjAddr: 0x13348, symBinAddr: 0x100021CFC, symSize: 0x2C8 }
  - { offsetInCU: 0x5F43, offset: 0x3474E, size: 0x8, addend: 0x0, symName: __ZL18stbi__cleanup_jpegP10stbi__jpeg, symObjAddr: 0x13610, symBinAddr: 0x100021FC4, symSize: 0x34 }
  - { offsetInCU: 0x5F6E, offset: 0x34779, size: 0x8, addend: 0x0, symName: __ZL14resample_row_1PhS_S_ii, symObjAddr: 0x13644, symBinAddr: 0x100021FF8, symSize: 0x24 }
  - { offsetInCU: 0x5FD9, offset: 0x347E4, size: 0x8, addend: 0x0, symName: __ZL22stbi__resample_row_v_2PhS_S_ii, symObjAddr: 0x13668, symBinAddr: 0x10002201C, symSize: 0x90 }
  - { offsetInCU: 0x6053, offset: 0x3485E, size: 0x8, addend: 0x0, symName: __ZL22stbi__resample_row_h_2PhS_S_ii, symObjAddr: 0x136F8, symBinAddr: 0x1000220AC, symSize: 0x1D8 }
  - { offsetInCU: 0x60F9, offset: 0x34904, size: 0x8, addend: 0x0, symName: __ZL26stbi__resample_row_genericPhS_S_ii, symObjAddr: 0x138D0, symBinAddr: 0x100022284, symSize: 0xBC }
  - { offsetInCU: 0x6182, offset: 0x3498D, size: 0x8, addend: 0x0, symName: __ZL15stbi__blinn_8x8hh, symObjAddr: 0x1398C, symBinAddr: 0x100022340, symSize: 0x3C }
  - { offsetInCU: 0x61CF, offset: 0x349DA, size: 0x8, addend: 0x0, symName: __ZL25stbi__process_scan_headerP10stbi__jpeg, symObjAddr: 0x139C8, symBinAddr: 0x10002237C, symSize: 0x4B4 }
  - { offsetInCU: 0x6274, offset: 0x34A7F, size: 0x8, addend: 0x0, symName: __ZL30stbi__parse_entropy_coded_dataP10stbi__jpeg, symObjAddr: 0x13E7C, symBinAddr: 0x100022830, symSize: 0xD14 }
  - { offsetInCU: 0x6544, offset: 0x34D4F, size: 0x8, addend: 0x0, symName: __ZL17stbi__jpeg_finishP10stbi__jpeg, symObjAddr: 0x14B90, symBinAddr: 0x100023544, symSize: 0x23C }
  - { offsetInCU: 0x65F3, offset: 0x34DFE, size: 0x8, addend: 0x0, symName: __ZL16stbi__jpeg_resetP10stbi__jpeg, symObjAddr: 0x14DCC, symBinAddr: 0x100023780, symSize: 0xD8 }
  - { offsetInCU: 0x661E, offset: 0x34E29, size: 0x8, addend: 0x0, symName: __ZL23stbi__jpeg_decode_blockP10stbi__jpegPsP13stbi__huffmanS3_S1_iPt, symObjAddr: 0x14EA4, symBinAddr: 0x100023858, symSize: 0x37C }
  - { offsetInCU: 0x673A, offset: 0x34F45, size: 0x8, addend: 0x0, symName: __ZL24stbi__grow_buffer_unsafeP10stbi__jpeg, symObjAddr: 0x15220, symBinAddr: 0x100023BD4, symSize: 0x164 }
  - { offsetInCU: 0x6797, offset: 0x34FA2, size: 0x8, addend: 0x0, symName: __ZL31stbi__jpeg_decode_block_prog_dcP10stbi__jpegPsP13stbi__huffmani, symObjAddr: 0x15384, symBinAddr: 0x100023D38, symSize: 0x1F8 }
  - { offsetInCU: 0x6820, offset: 0x3502B, size: 0x8, addend: 0x0, symName: __ZL31stbi__jpeg_decode_block_prog_acP10stbi__jpegPsP13stbi__huffmanS1_, symObjAddr: 0x1557C, symBinAddr: 0x100023F30, symSize: 0x778 }
  - { offsetInCU: 0x6981, offset: 0x3518C, size: 0x8, addend: 0x0, symName: __ZL22stbi__jpeg_huff_decodeP10stbi__jpegP13stbi__huffman, symObjAddr: 0x15CF4, symBinAddr: 0x1000246A8, symSize: 0x2EC }
  - { offsetInCU: 0x6A09, offset: 0x35214, size: 0x8, addend: 0x0, symName: __ZL20stbi__extend_receiveP10stbi__jpegi, symObjAddr: 0x15FE0, symBinAddr: 0x100024994, symSize: 0x108 }
  - { offsetInCU: 0x6A65, offset: 0x35270, size: 0x8, addend: 0x0, symName: __ZL18stbi__jpeg_get_bitP10stbi__jpeg, symObjAddr: 0x160E8, symBinAddr: 0x100024A9C, symSize: 0x88 }
  - { offsetInCU: 0x6AA3, offset: 0x352AE, size: 0x8, addend: 0x0, symName: __ZL19stbi__jpeg_get_bitsP10stbi__jpegi, symObjAddr: 0x16170, symBinAddr: 0x100024B24, symSize: 0xD8 }
  - { offsetInCU: 0x6AF0, offset: 0x352FB, size: 0x8, addend: 0x0, symName: __ZL21stbi__jpeg_dequantizePsPt, symObjAddr: 0x16248, symBinAddr: 0x100024BFC, symSize: 0x68 }
  - { offsetInCU: 0x6B39, offset: 0x35344, size: 0x8, addend: 0x0, symName: __ZL14stbi__pnm_infoP13stbi__contextPiS1_S1_, symObjAddr: 0x162B0, symBinAddr: 0x100024C64, symSize: 0x1DC }
  - { offsetInCU: 0x6BE0, offset: 0x353EB, size: 0x8, addend: 0x0, symName: __ZL21stbi__mad4sizes_validiiiii, symObjAddr: 0x1648C, symBinAddr: 0x100024E40, symSize: 0xEC }
  - { offsetInCU: 0x6C4B, offset: 0x35456, size: 0x8, addend: 0x0, symName: __ZL17stbi__malloc_mad4iiiii, symObjAddr: 0x16578, symBinAddr: 0x100024F2C, symSize: 0x98 }
  - { offsetInCU: 0x6CB6, offset: 0x354C1, size: 0x8, addend: 0x0, symName: __ZL25stbi__pnm_skip_whitespaceP13stbi__contextPc, symObjAddr: 0x16610, symBinAddr: 0x100024FC4, symSize: 0x138 }
  - { offsetInCU: 0x6CF0, offset: 0x354FB, size: 0x8, addend: 0x0, symName: __ZL20stbi__pnm_getintegerP13stbi__contextPc, symObjAddr: 0x16748, symBinAddr: 0x1000250FC, symSize: 0xA8 }
  - { offsetInCU: 0x6D3D, offset: 0x35548, size: 0x8, addend: 0x0, symName: __ZL17stbi__pnm_isspacec, symObjAddr: 0x167F0, symBinAddr: 0x1000251A4, symSize: 0xB8 }
  - { offsetInCU: 0x6D6C, offset: 0x35577, size: 0x8, addend: 0x0, symName: __ZL17stbi__pnm_isdigitc, symObjAddr: 0x168A8, symBinAddr: 0x10002525C, symSize: 0x48 }
  - { offsetInCU: 0x6D9B, offset: 0x355A6, size: 0x8, addend: 0x0, symName: __ZL18stbi__hdr_gettokenP13stbi__contextPc, symObjAddr: 0x168F0, symBinAddr: 0x1000252A4, symSize: 0x124 }
  - { offsetInCU: 0x6DF7, offset: 0x35602, size: 0x8, addend: 0x0, symName: __ZL17stbi__hdr_convertPfPhi, symObjAddr: 0x16A14, symBinAddr: 0x1000253C8, symSize: 0x1D4 }
  - { offsetInCU: 0x6E5D, offset: 0x35668, size: 0x8, addend: 0x0, symName: __Z5ldexpB7v160006fi, symObjAddr: 0x16BF8, symBinAddr: 0x1000255AC, symSize: 0x2C }
  - { offsetInCU: 0x6E9A, offset: 0x356A5, size: 0x8, addend: 0x0, symName: __Z3powB7v160006ff, symObjAddr: 0x16C24, symBinAddr: 0x1000255D8, symSize: 0x2C }
  - { offsetInCU: 0x6ED7, offset: 0x356E2, size: 0x8, addend: 0x0, symName: __ZL18stbi__tga_get_compiiPi, symObjAddr: 0x16C50, symBinAddr: 0x100025604, symSize: 0xEC }
  - { offsetInCU: 0x6F24, offset: 0x3572F, size: 0x8, addend: 0x0, symName: __ZL20stbi__tga_read_rgb16P13stbi__contextPh, symObjAddr: 0x16DA0, symBinAddr: 0x100025754, symSize: 0xA8 }
  - { offsetInCU: 0x6FA9, offset: 0x357B4, size: 0x8, addend: 0x0, symName: __ZL21stbi__convert_8_to_16Phiii, symObjAddr: 0x16E48, symBinAddr: 0x1000257FC, symSize: 0x10C }
  - { offsetInCU: 0x7032, offset: 0x3583D, size: 0x8, addend: 0x0, symName: __ZL23stbi__float_postprocessPfPiS0_S0_i, symObjAddr: 0x16F54, symBinAddr: 0x100025908, symSize: 0xE0 }
  - { offsetInCU: 0x70B6, offset: 0x358C1, size: 0x8, addend: 0x0, symName: __ZL16stbi__ldr_to_hdrPhiii, symObjAddr: 0x17034, symBinAddr: 0x1000259E8, symSize: 0x260 }
  - { offsetInCU: 0x714E, offset: 0x35959, size: 0x8, addend: 0x0, symName: __ZL16stbi__parse_zlibP10stbi__zbufi, symObjAddr: 0x17294, symBinAddr: 0x100025C48, symSize: 0x1CC }
  - { offsetInCU: 0x71AA, offset: 0x359B5, size: 0x8, addend: 0x0, symName: __ZL23stbi__parse_zlib_headerP10stbi__zbuf, symObjAddr: 0x17460, symBinAddr: 0x100025E14, symSize: 0x114 }
  - { offsetInCU: 0x7206, offset: 0x35A11, size: 0x8, addend: 0x0, symName: __ZL14stbi__zreceiveP10stbi__zbufi, symObjAddr: 0x17574, symBinAddr: 0x100025F28, symSize: 0x94 }
  - { offsetInCU: 0x7253, offset: 0x35A5E, size: 0x8, addend: 0x0, symName: __ZL30stbi__parse_uncompressed_blockP10stbi__zbuf, symObjAddr: 0x17608, symBinAddr: 0x100025FBC, symSize: 0x24C }
  - { offsetInCU: 0x72BE, offset: 0x35AC9, size: 0x8, addend: 0x0, symName: __ZL20stbi__zbuild_huffmanP14stbi__zhuffmanPKhi, symObjAddr: 0x17854, symBinAddr: 0x100026208, symSize: 0x3E8 }
  - { offsetInCU: 0x73BE, offset: 0x35BC9, size: 0x8, addend: 0x0, symName: __ZL25stbi__parse_huffman_blockP10stbi__zbuf, symObjAddr: 0x1800C, symBinAddr: 0x1000269C0, symSize: 0x398 }
  - { offsetInCU: 0x7471, offset: 0x35C7C, size: 0x8, addend: 0x0, symName: __ZL11stbi__zget8P10stbi__zbuf, symObjAddr: 0x183A4, symBinAddr: 0x100026D58, symSize: 0x64 }
  - { offsetInCU: 0x74A0, offset: 0x35CAB, size: 0x8, addend: 0x0, symName: __ZL10stbi__zeofP10stbi__zbuf, symObjAddr: 0x18408, symBinAddr: 0x100026DBC, symSize: 0x2C }
  - { offsetInCU: 0x74CF, offset: 0x35CDA, size: 0x8, addend: 0x0, symName: __ZL15stbi__fill_bitsP10stbi__zbuf, symObjAddr: 0x18434, symBinAddr: 0x100026DE8, symSize: 0xB0 }
  - { offsetInCU: 0x74FA, offset: 0x35D05, size: 0x8, addend: 0x0, symName: __ZL13stbi__zexpandP10stbi__zbufPci, symObjAddr: 0x184E4, symBinAddr: 0x100026E98, symSize: 0x1AC }
  - { offsetInCU: 0x7583, offset: 0x35D8E, size: 0x8, addend: 0x0, symName: __ZL17stbi__bit_reverseii, symObjAddr: 0x18690, symBinAddr: 0x100027044, symSize: 0x70 }
  - { offsetInCU: 0x75C1, offset: 0x35DCC, size: 0x8, addend: 0x0, symName: __ZL18stbi__bitreverse16i, symObjAddr: 0x18700, symBinAddr: 0x1000270B4, symSize: 0x98 }
  - { offsetInCU: 0x75F0, offset: 0x35DFB, size: 0x8, addend: 0x0, symName: __ZL21stbi__zhuffman_decodeP10stbi__zbufP14stbi__zhuffman, symObjAddr: 0x18798, symBinAddr: 0x10002714C, symSize: 0xF0 }
  - { offsetInCU: 0x764C, offset: 0x35E57, size: 0x8, addend: 0x0, symName: __ZL30stbi__zhuffman_decode_slowpathP10stbi__zbufP14stbi__zhuffman, symObjAddr: 0x18888, symBinAddr: 0x10002723C, symSize: 0x170 }
  - { offsetInCU: 0x76B7, offset: 0x35EC2, size: 0x8, addend: 0x0, symName: __ZL28stbi__load_gif_main_outofmemP9stbi__gifPhPPi, symObjAddr: 0x189F8, symBinAddr: 0x1000273AC, symSize: 0xC8 }
  - { offsetInCU: 0x7704, offset: 0x35F0F, size: 0x8, addend: 0x0, symName: __ZL19stbi__hdr_test_coreP13stbi__contextPKc, symObjAddr: 0x18AC0, symBinAddr: 0x100027474, symSize: 0xA0 }
  - { offsetInCU: 0x7751, offset: 0x35F5C, size: 0x8, addend: 0x0, symName: __ZL15stbi__jpeg_infoP13stbi__contextPiS1_S1_, symObjAddr: 0x18B60, symBinAddr: 0x100027514, symSize: 0x98 }
  - { offsetInCU: 0x77CB, offset: 0x35FD6, size: 0x8, addend: 0x0, symName: __ZL14stbi__png_infoP13stbi__contextPiS1_S1_, symObjAddr: 0x18BF8, symBinAddr: 0x1000275AC, symSize: 0x44 }
  - { offsetInCU: 0x7836, offset: 0x36041, size: 0x8, addend: 0x0, symName: __ZL14stbi__gif_infoP13stbi__contextPiS1_S1_, symObjAddr: 0x18C3C, symBinAddr: 0x1000275F0, symSize: 0x3C }
  - { offsetInCU: 0x7892, offset: 0x3609D, size: 0x8, addend: 0x0, symName: __ZL14stbi__bmp_infoP13stbi__contextPiS1_S1_, symObjAddr: 0x18C78, symBinAddr: 0x10002762C, symSize: 0x144 }
  - { offsetInCU: 0x790C, offset: 0x36117, size: 0x8, addend: 0x0, symName: __ZL14stbi__psd_infoP13stbi__contextPiS1_S1_, symObjAddr: 0x18DBC, symBinAddr: 0x100027770, symSize: 0x1D8 }
  - { offsetInCU: 0x7995, offset: 0x361A0, size: 0x8, addend: 0x0, symName: __ZL14stbi__pic_infoP13stbi__contextPiS1_S1_, symObjAddr: 0x18F94, symBinAddr: 0x100027948, symSize: 0x2E4 }
  - { offsetInCU: 0x7A51, offset: 0x3625C, size: 0x8, addend: 0x0, symName: __ZL14stbi__hdr_infoP13stbi__contextPiS1_S1_, symObjAddr: 0x19278, symBinAddr: 0x100027C2C, symSize: 0x28C }
  - { offsetInCU: 0x7AEA, offset: 0x362F5, size: 0x8, addend: 0x0, symName: __ZL14stbi__tga_infoP13stbi__contextPiS1_S1_, symObjAddr: 0x19504, symBinAddr: 0x100027EB8, symSize: 0x3AC }
  - { offsetInCU: 0x7BBE, offset: 0x363C9, size: 0x8, addend: 0x0, symName: __ZL19stbi__jpeg_info_rawP10stbi__jpegPiS1_S1_, symObjAddr: 0x198B0, symBinAddr: 0x100028264, symSize: 0x104 }
  - { offsetInCU: 0x7C1A, offset: 0x36425, size: 0x8, addend: 0x0, symName: __ZL18stbi__png_info_rawP9stbi__pngPiS1_S1_, symObjAddr: 0x199B4, symBinAddr: 0x100028368, symSize: 0xF0 }
  - { offsetInCU: 0x7C76, offset: 0x36481, size: 0x8, addend: 0x0, symName: __ZL18stbi__gif_info_rawP13stbi__contextPiS1_S1_, symObjAddr: 0x19AA4, symBinAddr: 0x100028458, symSize: 0x100 }
  - { offsetInCU: 0x7CE1, offset: 0x364EC, size: 0x8, addend: 0x0, symName: __ZL14stbi__png_is16P13stbi__context, symObjAddr: 0x19BA4, symBinAddr: 0x100028558, symSize: 0x84 }
  - { offsetInCU: 0x7D1F, offset: 0x3652A, size: 0x8, addend: 0x0, symName: __ZL14stbi__psd_is16P13stbi__context, symObjAddr: 0x19C28, symBinAddr: 0x1000285DC, symSize: 0x104 }
  - { offsetInCU: 0x7D6C, offset: 0x36577, size: 0x8, addend: 0x0, symName: __ZL14stbi__pnm_is16P13stbi__context, symObjAddr: 0x19D2C, symBinAddr: 0x1000286E0, symSize: 0x58 }
  - { offsetInCU: 0x33, offset: 0x36A27, size: 0x8, addend: 0x0, symName: __Z10checkMouseP6WindowPfS1_, symObjAddr: 0x0, symBinAddr: 0x100028738, symSize: 0x200 }
  - { offsetInCU: 0x59, offset: 0x36A4D, size: 0x8, addend: 0x0, symName: __ZZ10checkMouseP6WindowPfS1_E5lastX, symObjAddr: 0x505D0, symBinAddr: 0x1000381A0, symSize: 0x0 }
  - { offsetInCU: 0x6F, offset: 0x36A63, size: 0x8, addend: 0x0, symName: __ZZ10checkMouseP6WindowPfS1_E5lastY, symObjAddr: 0x505E0, symBinAddr: 0x1000381B0, symSize: 0x0 }
  - { offsetInCU: 0x110, offset: 0x36B04, size: 0x8, addend: 0x0, symName: __ZL8tiktoker, symObjAddr: 0x505F8, symBinAddr: 0x1000381C8, symSize: 0x0 }
  - { offsetInCU: 0x18C, offset: 0x36B80, size: 0x8, addend: 0x0, symName: __Z15keyboardControlP6WindowP6CameraP6Shader, symObjAddr: 0xB0C, symBinAddr: 0x100029178, symSize: 0x2F0 }
  - { offsetInCU: 0x1B2, offset: 0x36BA6, size: 0x8, addend: 0x0, symName: __ZZ15keyboardControlP6WindowP6CameraP6ShaderE15ambientStrength, symObjAddr: 0x50600, symBinAddr: 0x1000381D0, symSize: 0x0 }
  - { offsetInCU: 0x22B, offset: 0x36C1F, size: 0x8, addend: 0x0, symName: _mainWindow, symObjAddr: 0x50628, symBinAddr: 0x1000381F8, symSize: 0x0 }
  - { offsetInCU: 0x386, offset: 0x36D7A, size: 0x8, addend: 0x0, symName: _meshList, symObjAddr: 0x50648, symBinAddr: 0x100038218, symSize: 0x0 }
  - { offsetInCU: 0x5B36, offset: 0x3C52A, size: 0x8, addend: 0x0, symName: __ZNSt3__112__to_addressB7v160006IP4MeshEEPT_S4_, symObjAddr: 0x44C4, symBinAddr: 0x10002BFF4, symSize: 0x14 }
  - { offsetInCU: 0x5B6B, offset: 0x3C55F, size: 0x8, addend: 0x0, symName: __ZNSt3__119__allocate_at_leastB7v160006INS_9allocatorIP4MeshEEEENS_19__allocation_resultINS_16allocator_traitsIT_E7pointerEEERS7_m, symObjAddr: 0x4D24, symBinAddr: 0x10002C620, symSize: 0x40 }
  - { offsetInCU: 0x5BAE, offset: 0x3C5A2, size: 0x8, addend: 0x0, symName: __ZNSt3__142__uninitialized_allocator_move_if_noexceptB7v160006INS_9allocatorIP4MeshEENS_16reverse_iteratorIPS3_EES7_S3_vEET1_RT_T0_SB_S8_, symObjAddr: 0x50B0, symBinAddr: 0x10002C8A8, symSize: 0x78 }
  - { offsetInCU: 0x5C2B, offset: 0x3C61F, size: 0x8, addend: 0x0, symName: __ZNSt3__14swapB7v160006IPP4MeshEENS_9enable_ifIXaasr21is_move_constructibleIT_EE5valuesr18is_move_assignableIS5_EE5valueEvE4typeERS5_S8_, symObjAddr: 0x5174, symBinAddr: 0x10002C96C, symSize: 0x3C }
  - { offsetInCU: 0x5C7C, offset: 0x3C670, size: 0x8, addend: 0x0, symName: __ZNSt3__125__debug_db_invalidate_allB7v160006INS_6vectorIP4MeshNS_9allocatorIS3_EEEEEEvPT_, symObjAddr: 0x525C, symBinAddr: 0x10002CA54, symSize: 0x10 }
  - { offsetInCU: 0x5CAD, offset: 0x3C6A1, size: 0x8, addend: 0x0, symName: __ZNSt3__14moveB7v160006INS_16reverse_iteratorIPP4MeshEES5_EET0_T_S7_S6_, symObjAddr: 0x52B4, symBinAddr: 0x10002CAAC, symSize: 0x78 }
  - { offsetInCU: 0x5D07, offset: 0x3C6FB, size: 0x8, addend: 0x0, symName: __ZNSt3__16__moveB7v160006INS_17_ClassicAlgPolicyENS_16reverse_iteratorIPP4MeshEES6_S6_EENS_4pairIT0_T2_EES8_T1_S9_, symObjAddr: 0x532C, symBinAddr: 0x10002CB24, symSize: 0x64 }
  - { offsetInCU: 0x5D73, offset: 0x3C767, size: 0x8, addend: 0x0, symName: __ZNSt3__123__dispatch_copy_or_moveB7v160006INS_17_ClassicAlgPolicyENS_11__move_loopIS1_EENS_14__move_trivialENS_16reverse_iteratorIPP4MeshEES9_S9_EENS_4pairIT2_T4_EESB_T3_SC_, symObjAddr: 0x5390, symBinAddr: 0x10002CB88, symSize: 0x64 }
  - { offsetInCU: 0x5DF1, offset: 0x3C7E5, size: 0x8, addend: 0x0, symName: __ZNSt3__121__unwrap_and_dispatchB7v160006INS_10__overloadINS_11__move_loopINS_17_ClassicAlgPolicyEEENS_14__move_trivialEEENS_16reverse_iteratorIPP4MeshEESB_SB_Li0EEENS_4pairIT0_T2_EESD_T1_SE_, symObjAddr: 0x53F4, symBinAddr: 0x10002CBEC, symSize: 0x12C }
  - { offsetInCU: 0x5E81, offset: 0x3C875, size: 0x8, addend: 0x0, symName: __ZNSt3__114__unwrap_rangeB7v160006INS_16reverse_iteratorIPP4MeshEES5_EENS_4pairIT0_S7_EET_S9_, symObjAddr: 0x5520, symBinAddr: 0x10002CD18, symSize: 0x84 }
  - { offsetInCU: 0x6071, offset: 0x3CA65, size: 0x8, addend: 0x0, symName: __ZNSt3__113__unwrap_iterB7v160006INS_16reverse_iteratorIPP4MeshEENS_18__unwrap_iter_implIS5_Lb0EEELi0EEEDTclsrT0_8__unwrapclsr3stdE7declvalIT_EEEES9_, symObjAddr: 0x5644, symBinAddr: 0x10002CE3C, symSize: 0x44 }
  - { offsetInCU: 0x60B5, offset: 0x3CAA9, size: 0x8, addend: 0x0, symName: __ZNSt3__19make_pairB7v160006INS_16reverse_iteratorIPP4MeshEES5_EENS_4pairINS_18__unwrap_ref_decayIT_E4typeENS7_IT0_E4typeEEEOS8_OSB_, symObjAddr: 0x5688, symBinAddr: 0x10002CE80, symSize: 0x38 }
  - { offsetInCU: 0x6104, offset: 0x3CAF8, size: 0x8, addend: 0x0, symName: __ZNSt3__114__rewrap_rangeB7v160006INS_16reverse_iteratorIPP4MeshEES5_EET_S6_T0_, symObjAddr: 0x56C0, symBinAddr: 0x10002CEB8, symSize: 0x5C }
  - { offsetInCU: 0x6150, offset: 0x3CB44, size: 0x8, addend: 0x0, symName: __ZNSt3__113__rewrap_iterB7v160006INS_16reverse_iteratorIPP4MeshEES5_NS_18__unwrap_iter_implIS5_Lb0EEEEET_S8_T0_, symObjAddr: 0x571C, symBinAddr: 0x10002CF14, symSize: 0x74 }
  - { offsetInCU: 0x61A5, offset: 0x3CB99, size: 0x8, addend: 0x0, symName: __ZNSt3__1neB7v160006IPP4MeshS3_EEbRKNS_16reverse_iteratorIT_EERKNS4_IT0_EE, symObjAddr: 0x5790, symBinAddr: 0x10002CF88, symSize: 0x48 }
  - { offsetInCU: 0x6309, offset: 0x3CCFD, size: 0x8, addend: 0x0, symName: __ZNSt3__112__to_addressB7v160006IP11SceneObjectEEPT_S4_, symObjAddr: 0x5F3C, symBinAddr: 0x10002D62C, symSize: 0x14 }
  - { offsetInCU: 0x633E, offset: 0x3CD32, size: 0x8, addend: 0x0, symName: __ZNSt3__119__allocate_at_leastB7v160006INS_9allocatorIP11SceneObjectEEEENS_19__allocation_resultINS_16allocator_traitsIT_E7pointerEEERS7_m, symObjAddr: 0x6540, symBinAddr: 0x10002DC30, symSize: 0x40 }
  - { offsetInCU: 0x6381, offset: 0x3CD75, size: 0x8, addend: 0x0, symName: __ZNSt3__142__uninitialized_allocator_move_if_noexceptB7v160006INS_9allocatorIP11SceneObjectEENS_16reverse_iteratorIPS3_EES7_S3_vEET1_RT_T0_SB_S8_, symObjAddr: 0x67C8, symBinAddr: 0x10002DEB8, symSize: 0x78 }
  - { offsetInCU: 0x63FE, offset: 0x3CDF2, size: 0x8, addend: 0x0, symName: __ZNSt3__14swapB7v160006IPP11SceneObjectEENS_9enable_ifIXaasr21is_move_constructibleIT_EE5valuesr18is_move_assignableIS5_EE5valueEvE4typeERS5_S8_, symObjAddr: 0x688C, symBinAddr: 0x10002DF7C, symSize: 0x3C }
  - { offsetInCU: 0x644F, offset: 0x3CE43, size: 0x8, addend: 0x0, symName: __ZNSt3__125__debug_db_invalidate_allB7v160006INS_6vectorIP11SceneObjectNS_9allocatorIS3_EEEEEEvPT_, symObjAddr: 0x6974, symBinAddr: 0x10002E064, symSize: 0x10 }
  - { offsetInCU: 0x6480, offset: 0x3CE74, size: 0x8, addend: 0x0, symName: __ZNSt3__14moveB7v160006INS_16reverse_iteratorIPP11SceneObjectEES5_EET0_T_S7_S6_, symObjAddr: 0x69CC, symBinAddr: 0x10002E0BC, symSize: 0x78 }
  - { offsetInCU: 0x64DA, offset: 0x3CECE, size: 0x8, addend: 0x0, symName: __ZNSt3__16__moveB7v160006INS_17_ClassicAlgPolicyENS_16reverse_iteratorIPP11SceneObjectEES6_S6_EENS_4pairIT0_T2_EES8_T1_S9_, symObjAddr: 0x6A44, symBinAddr: 0x10002E134, symSize: 0x64 }
  - { offsetInCU: 0x6546, offset: 0x3CF3A, size: 0x8, addend: 0x0, symName: __ZNSt3__123__dispatch_copy_or_moveB7v160006INS_17_ClassicAlgPolicyENS_11__move_loopIS1_EENS_14__move_trivialENS_16reverse_iteratorIPP11SceneObjectEES9_S9_EENS_4pairIT2_T4_EESB_T3_SC_, symObjAddr: 0x6AA8, symBinAddr: 0x10002E198, symSize: 0x64 }
  - { offsetInCU: 0x65C4, offset: 0x3CFB8, size: 0x8, addend: 0x0, symName: __ZNSt3__121__unwrap_and_dispatchB7v160006INS_10__overloadINS_11__move_loopINS_17_ClassicAlgPolicyEEENS_14__move_trivialEEENS_16reverse_iteratorIPP11SceneObjectEESB_SB_Li0EEENS_4pairIT0_T2_EESD_T1_SE_, symObjAddr: 0x6B0C, symBinAddr: 0x10002E1FC, symSize: 0x12C }
  - { offsetInCU: 0x6654, offset: 0x3D048, size: 0x8, addend: 0x0, symName: __ZNSt3__114__unwrap_rangeB7v160006INS_16reverse_iteratorIPP11SceneObjectEES5_EENS_4pairIT0_S7_EET_S9_, symObjAddr: 0x6C38, symBinAddr: 0x10002E328, symSize: 0x84 }
  - { offsetInCU: 0x6774, offset: 0x3D168, size: 0x8, addend: 0x0, symName: __ZNSt3__113__unwrap_iterB7v160006INS_16reverse_iteratorIPP11SceneObjectEENS_18__unwrap_iter_implIS5_Lb0EEELi0EEEDTclsrT0_8__unwrapclsr3stdE7declvalIT_EEEES9_, symObjAddr: 0x6D5C, symBinAddr: 0x10002E44C, symSize: 0x44 }
  - { offsetInCU: 0x67B8, offset: 0x3D1AC, size: 0x8, addend: 0x0, symName: __ZNSt3__19make_pairB7v160006INS_16reverse_iteratorIPP11SceneObjectEES5_EENS_4pairINS_18__unwrap_ref_decayIT_E4typeENS7_IT0_E4typeEEEOS8_OSB_, symObjAddr: 0x6DA0, symBinAddr: 0x10002E490, symSize: 0x38 }
  - { offsetInCU: 0x6807, offset: 0x3D1FB, size: 0x8, addend: 0x0, symName: __ZNSt3__114__rewrap_rangeB7v160006INS_16reverse_iteratorIPP11SceneObjectEES5_EET_S6_T0_, symObjAddr: 0x6DD8, symBinAddr: 0x10002E4C8, symSize: 0x5C }
  - { offsetInCU: 0x6853, offset: 0x3D247, size: 0x8, addend: 0x0, symName: __ZNSt3__113__rewrap_iterB7v160006INS_16reverse_iteratorIPP11SceneObjectEES5_NS_18__unwrap_iter_implIS5_Lb0EEEEET_S8_T0_, symObjAddr: 0x6E34, symBinAddr: 0x10002E524, symSize: 0x74 }
  - { offsetInCU: 0x68A8, offset: 0x3D29C, size: 0x8, addend: 0x0, symName: __ZNSt3__1neB7v160006IPP11SceneObjectS3_EEbRKNS_16reverse_iteratorIT_EERKNS4_IT0_EE, symObjAddr: 0x6EA8, symBinAddr: 0x10002E598, symSize: 0x48 }
  - { offsetInCU: 0x6960, offset: 0x3D354, size: 0x8, addend: 0x0, symName: __ZNSt3__119__debug_db_insert_cB7v160006INS_6vectorIP11SceneObjectNS_9allocatorIS3_EEEEEEvPT_, symObjAddr: 0x7380, symBinAddr: 0x10002EA70, symSize: 0x10 }
  - { offsetInCU: 0x6991, offset: 0x3D385, size: 0x8, addend: 0x0, symName: __ZNSt3__118__debug_db_erase_cB7v160006INS_6vectorIP11SceneObjectNS_9allocatorIS3_EEEEEEvPT_, symObjAddr: 0x7570, symBinAddr: 0x10002EC60, symSize: 0x10 }
  - { offsetInCU: 0x69C2, offset: 0x3D3B6, size: 0x8, addend: 0x0, symName: __ZNSt3__119__debug_db_insert_cB7v160006INS_6vectorIP4MeshNS_9allocatorIS3_EEEEEEvPT_, symObjAddr: 0x76C8, symBinAddr: 0x10002EDB8, symSize: 0x10 }
  - { offsetInCU: 0x69F3, offset: 0x3D3E7, size: 0x8, addend: 0x0, symName: __ZNSt3__118__debug_db_erase_cB7v160006INS_6vectorIP4MeshNS_9allocatorIS3_EEEEEEvPT_, symObjAddr: 0x78B8, symBinAddr: 0x10002EFA8, symSize: 0x10 }
  - { offsetInCU: 0x6A24, offset: 0x3D418, size: 0x8, addend: 0x0, symName: __ZNSt3__119__debug_db_insert_cB7v160006INS_6vectorIP6ShaderNS_9allocatorIS3_EEEEEEvPT_, symObjAddr: 0x7A10, symBinAddr: 0x10002F100, symSize: 0x10 }
  - { offsetInCU: 0x6A55, offset: 0x3D449, size: 0x8, addend: 0x0, symName: __ZNSt3__118__debug_db_erase_cB7v160006INS_6vectorIP6ShaderNS_9allocatorIS3_EEEEEEvPT_, symObjAddr: 0x7CD4, symBinAddr: 0x10002F3C4, symSize: 0x10 }
  - { offsetInCU: 0x6A86, offset: 0x3D47A, size: 0x8, addend: 0x0, symName: __ZNSt3__112__to_addressB7v160006IP6ShaderEEPT_S4_, symObjAddr: 0x7E18, symBinAddr: 0x10002F508, symSize: 0x14 }
  - { offsetInCU: 0x6ABB, offset: 0x3D4AF, size: 0x8, addend: 0x0, symName: __ZNSt3__119__allocate_at_leastB7v160006INS_9allocatorIP6ShaderEEEENS_19__allocation_resultINS_16allocator_traitsIT_E7pointerEEERS7_m, symObjAddr: 0x8720, symBinAddr: 0x10002FE10, symSize: 0x40 }
  - { offsetInCU: 0x6AFE, offset: 0x3D4F2, size: 0x8, addend: 0x0, symName: __ZNSt3__142__uninitialized_allocator_move_if_noexceptB7v160006INS_9allocatorIP6ShaderEENS_16reverse_iteratorIPS3_EES7_S3_vEET1_RT_T0_SB_S8_, symObjAddr: 0x88D4, symBinAddr: 0x10002FFC4, symSize: 0x78 }
  - { offsetInCU: 0x6B7B, offset: 0x3D56F, size: 0x8, addend: 0x0, symName: __ZNSt3__14swapB7v160006IPP6ShaderEENS_9enable_ifIXaasr21is_move_constructibleIT_EE5valuesr18is_move_assignableIS5_EE5valueEvE4typeERS5_S8_, symObjAddr: 0x8998, symBinAddr: 0x100030088, symSize: 0x3C }
  - { offsetInCU: 0x6BCC, offset: 0x3D5C0, size: 0x8, addend: 0x0, symName: __ZNSt3__125__debug_db_invalidate_allB7v160006INS_6vectorIP6ShaderNS_9allocatorIS3_EEEEEEvPT_, symObjAddr: 0x8A80, symBinAddr: 0x100030170, symSize: 0x10 }
  - { offsetInCU: 0x6BFD, offset: 0x3D5F1, size: 0x8, addend: 0x0, symName: __ZNSt3__14moveB7v160006INS_16reverse_iteratorIPP6ShaderEES5_EET0_T_S7_S6_, symObjAddr: 0x8A90, symBinAddr: 0x100030180, symSize: 0x78 }
  - { offsetInCU: 0x6C57, offset: 0x3D64B, size: 0x8, addend: 0x0, symName: __ZNSt3__16__moveB7v160006INS_17_ClassicAlgPolicyENS_16reverse_iteratorIPP6ShaderEES6_S6_EENS_4pairIT0_T2_EES8_T1_S9_, symObjAddr: 0x8B08, symBinAddr: 0x1000301F8, symSize: 0x64 }
  - { offsetInCU: 0x6CC3, offset: 0x3D6B7, size: 0x8, addend: 0x0, symName: __ZNSt3__123__dispatch_copy_or_moveB7v160006INS_17_ClassicAlgPolicyENS_11__move_loopIS1_EENS_14__move_trivialENS_16reverse_iteratorIPP6ShaderEES9_S9_EENS_4pairIT2_T4_EESB_T3_SC_, symObjAddr: 0x8B6C, symBinAddr: 0x10003025C, symSize: 0x64 }
  - { offsetInCU: 0x6D41, offset: 0x3D735, size: 0x8, addend: 0x0, symName: __ZNSt3__121__unwrap_and_dispatchB7v160006INS_10__overloadINS_11__move_loopINS_17_ClassicAlgPolicyEEENS_14__move_trivialEEENS_16reverse_iteratorIPP6ShaderEESB_SB_Li0EEENS_4pairIT0_T2_EESD_T1_SE_, symObjAddr: 0x8BD0, symBinAddr: 0x1000302C0, symSize: 0x12C }
  - { offsetInCU: 0x6DD1, offset: 0x3D7C5, size: 0x8, addend: 0x0, symName: __ZNSt3__114__unwrap_rangeB7v160006INS_16reverse_iteratorIPP6ShaderEES5_EENS_4pairIT0_S7_EET_S9_, symObjAddr: 0x8CFC, symBinAddr: 0x1000303EC, symSize: 0x84 }
  - { offsetInCU: 0x6EF1, offset: 0x3D8E5, size: 0x8, addend: 0x0, symName: __ZNSt3__113__unwrap_iterB7v160006INS_16reverse_iteratorIPP6ShaderEENS_18__unwrap_iter_implIS5_Lb0EEELi0EEEDTclsrT0_8__unwrapclsr3stdE7declvalIT_EEEES9_, symObjAddr: 0x8E20, symBinAddr: 0x100030510, symSize: 0x44 }
  - { offsetInCU: 0x6F35, offset: 0x3D929, size: 0x8, addend: 0x0, symName: __ZNSt3__19make_pairB7v160006INS_16reverse_iteratorIPP6ShaderEES5_EENS_4pairINS_18__unwrap_ref_decayIT_E4typeENS7_IT0_E4typeEEEOS8_OSB_, symObjAddr: 0x8E64, symBinAddr: 0x100030554, symSize: 0x38 }
  - { offsetInCU: 0x6F84, offset: 0x3D978, size: 0x8, addend: 0x0, symName: __ZNSt3__114__rewrap_rangeB7v160006INS_16reverse_iteratorIPP6ShaderEES5_EET_S6_T0_, symObjAddr: 0x8E9C, symBinAddr: 0x10003058C, symSize: 0x5C }
  - { offsetInCU: 0x6FD0, offset: 0x3D9C4, size: 0x8, addend: 0x0, symName: __ZNSt3__113__rewrap_iterB7v160006INS_16reverse_iteratorIPP6ShaderEES5_NS_18__unwrap_iter_implIS5_Lb0EEEEET_S8_T0_, symObjAddr: 0x8EF8, symBinAddr: 0x1000305E8, symSize: 0x74 }
  - { offsetInCU: 0x7025, offset: 0x3DA19, size: 0x8, addend: 0x0, symName: __ZNSt3__1neB7v160006IPP6ShaderS3_EEbRKNS_16reverse_iteratorIT_EERKNS4_IT0_EE, symObjAddr: 0x8F6C, symBinAddr: 0x10003065C, symSize: 0x48 }
  - { offsetInCU: 0x7330, offset: 0x3DD24, size: 0x8, addend: 0x0, symName: _shaderList, symObjAddr: 0x50660, symBinAddr: 0x100038230, symSize: 0x0 }
  - { offsetInCU: 0x74CF, offset: 0x3DEC3, size: 0x8, addend: 0x0, symName: _lightColour, symObjAddr: 0x9B68, symBinAddr: 0x100038090, symSize: 0x0 }
  - { offsetInCU: 0x8C3D, offset: 0x3F631, size: 0x8, addend: 0x0, symName: __ZN3glm9translateIfLNS_9qualifierE0EEENS_3matILi4ELi4ET_XT0_EEERKS4_RKNS_3vecILi3ES3_XT0_EEE, symObjAddr: 0x508, symBinAddr: 0x100028C40, symSize: 0x188 }
  - { offsetInCU: 0x8C9A, offset: 0x3F68E, size: 0x8, addend: 0x0, symName: __ZN3glm5scaleIfLNS_9qualifierE0EEENS_3matILi4ELi4ET_XT0_EEERKS4_RKNS_3vecILi3ES3_XT0_EEE, symObjAddr: 0x690, symBinAddr: 0x100028DC8, symSize: 0x150 }
  - { offsetInCU: 0x8CF7, offset: 0x3F6EB, size: 0x8, addend: 0x0, symName: __ZN3glm9value_ptrIfLNS_9qualifierE0EEEPT_RNS_3matILi4ELi4ES2_XT0_EEE, symObjAddr: 0x81C, symBinAddr: 0x100028F54, symSize: 0x28 }
  - { offsetInCU: 0x8D36, offset: 0x3F72A, size: 0x8, addend: 0x0, symName: __ZN3glm9value_ptrIfLNS_9qualifierE0EEEPT_RNS_3vecILi3ES2_XT0_EEE, symObjAddr: 0x844, symBinAddr: 0x100028F7C, symSize: 0x14 }
  - { offsetInCU: 0x8D75, offset: 0x3F769, size: 0x8, addend: 0x0, symName: __ZN3glmmlIfLNS_9qualifierE0EEENS_3vecILi3ET_XT0_EEERKS4_S3_, symObjAddr: 0xE14, symBinAddr: 0x100029480, symSize: 0x64 }
  - { offsetInCU: 0x8DC5, offset: 0x3F7B9, size: 0x8, addend: 0x0, symName: __ZN3glm5crossIfLNS_9qualifierE0EEENS_3vecILi3ET_XT0_EEERKS4_S6_, symObjAddr: 0xF20, symBinAddr: 0x10002958C, symSize: 0x44 }
  - { offsetInCU: 0x8E12, offset: 0x3F806, size: 0x8, addend: 0x0, symName: __ZN3glm7radiansIfEET_S1_, symObjAddr: 0x15F4, symBinAddr: 0x100029C60, symSize: 0x24 }
  - { offsetInCU: 0x8E47, offset: 0x3F83B, size: 0x8, addend: 0x0, symName: __ZN3glm9normalizeILi3EfLNS_9qualifierE0EEENS_3vecIXT_ET0_XT1_EEERKS4_, symObjAddr: 0x2184, symBinAddr: 0x10002A7F0, symSize: 0x3C }
  - { offsetInCU: 0x8E90, offset: 0x3F884, size: 0x8, addend: 0x0, symName: __ZN3glmmiIfLNS_9qualifierE0EEENS_3vecILi3ET_XT0_EEERKS4_S6_, symObjAddr: 0x21C0, symBinAddr: 0x10002A82C, symSize: 0x70 }
  - { offsetInCU: 0x8EE0, offset: 0x3F8D4, size: 0x8, addend: 0x0, symName: __ZN3glm11perspectiveIfEENS_3matILi4ELi4ET_LNS_9qualifierE0EEES2_S2_S2_S2_, symObjAddr: 0x2264, symBinAddr: 0x10002A8D0, symSize: 0x3C }
  - { offsetInCU: 0x90C1, offset: 0x3FAB5, size: 0x8, addend: 0x0, symName: __ZN3glm11inversesqrtIfEET_S1_, symObjAddr: 0x2324, symBinAddr: 0x10002A990, symSize: 0x30 }
  - { offsetInCU: 0x90F6, offset: 0x3FAEA, size: 0x8, addend: 0x0, symName: __ZN3glm3dotILi3EfLNS_9qualifierE0EEET0_RKNS_3vecIXT_ES2_XT1_EEES6_, symObjAddr: 0x2354, symBinAddr: 0x10002A9C0, symSize: 0x2C }
  - { offsetInCU: 0x914D, offset: 0x3FB41, size: 0x8, addend: 0x0, symName: __ZN3glmmlIfLNS_9qualifierE0EEENS_3vecILi3ET_XT0_EEERKS4_S6_, symObjAddr: 0x23E4, symBinAddr: 0x10002AA50, symSize: 0x70 }
  - { offsetInCU: 0x919D, offset: 0x3FB91, size: 0x8, addend: 0x0, symName: __ZN3glm16perspectiveRH_NOIfEENS_3matILi4ELi4ET_LNS_9qualifierE0EEES2_S2_S2_S2_, symObjAddr: 0x275C, symBinAddr: 0x10002ADC8, symSize: 0x1C8 }
  - { offsetInCU: 0x921A, offset: 0x3FC0E, size: 0x8, addend: 0x0, symName: __ZN3glm3absIfEET_S1_, symObjAddr: 0x2924, symBinAddr: 0x10002AF90, symSize: 0x24 }
  - { offsetInCU: 0x9251, offset: 0x3FC45, size: 0x8, addend: 0x0, symName: __ZN3glmplIfLNS_9qualifierE0EEENS_3vecILi4ET_XT0_EEERKS4_S6_, symObjAddr: 0x2B94, symBinAddr: 0x10002B1F4, symSize: 0x50 }
  - { offsetInCU: 0x92A1, offset: 0x3FC95, size: 0x8, addend: 0x0, symName: __ZN3glmmlIfLNS_9qualifierE0EEENS_3vecILi4ET_XT0_EEERKS4_S3_, symObjAddr: 0x2BE4, symBinAddr: 0x10002B244, symSize: 0x50 }
  - { offsetInCU: 0x92F1, offset: 0x3FCE5, size: 0x8, addend: 0x0, symName: __ZN3glm6lookAtIfLNS_9qualifierE0EEENS_3matILi4ELi4ET_XT0_EEERKNS_3vecILi3ES3_XT0_EEES8_S8_, symObjAddr: 0x3338, symBinAddr: 0x10002B998, symSize: 0x34 }
  - { offsetInCU: 0x934C, offset: 0x3FD40, size: 0x8, addend: 0x0, symName: __ZN3glmplIfLNS_9qualifierE0EEENS_3vecILi3ET_XT0_EEERKS4_S6_, symObjAddr: 0x336C, symBinAddr: 0x10002B9CC, symSize: 0x70 }
  - { offsetInCU: 0x939C, offset: 0x3FD90, size: 0x8, addend: 0x0, symName: __ZN3glm8lookAtRHIfLNS_9qualifierE0EEENS_3matILi4ELi4ET_XT0_EEERKNS_3vecILi3ES3_XT0_EEES8_S8_, symObjAddr: 0x33DC, symBinAddr: 0x10002BA3C, symSize: 0x2E4 }
  - { offsetInCU: 0x9467, offset: 0x3FE5B, size: 0x8, addend: 0x0, symName: _lightPos, symObjAddr: 0x9B74, symBinAddr: 0x10003809C, symSize: 0x0 }
  - { offsetInCU: 0x947D, offset: 0x3FE71, size: 0x8, addend: 0x0, symName: _lightShader, symObjAddr: 0x50678, symBinAddr: 0x100038248, symSize: 0x0 }
  - { offsetInCU: 0x9493, offset: 0x3FE87, size: 0x8, addend: 0x0, symName: __ZL10objectList, symObjAddr: 0x50610, symBinAddr: 0x1000381E0, symSize: 0x0 }
  - { offsetInCU: 0x970A, offset: 0x400FE, size: 0x8, addend: 0x0, symName: __ZL10mainCamera, symObjAddr: 0x505F0, symBinAddr: 0x1000381C0, symSize: 0x0 }
  - { offsetInCU: 0x9A4C, offset: 0x40440, size: 0x8, addend: 0x0, symName: __ZL9mainWorld, symObjAddr: 0x50608, symBinAddr: 0x1000381D8, symSize: 0x0 }
  - { offsetInCU: 0x9ABD, offset: 0x404B1, size: 0x8, addend: 0x0, symName: __ZL7vShader, symObjAddr: 0x9B80, symBinAddr: 0x1000380A8, symSize: 0x0 }
  - { offsetInCU: 0x9AD7, offset: 0x404CB, size: 0x8, addend: 0x0, symName: __ZL7fShader, symObjAddr: 0x9B88, symBinAddr: 0x1000380B0, symSize: 0x0 }
  - { offsetInCU: 0x9AF1, offset: 0x404E5, size: 0x8, addend: 0x0, symName: __ZL12lightVShader, symObjAddr: 0x9B90, symBinAddr: 0x1000380B8, symSize: 0x0 }
  - { offsetInCU: 0x9B0B, offset: 0x404FF, size: 0x8, addend: 0x0, symName: __ZL12lightFShader, symObjAddr: 0x9B98, symBinAddr: 0x1000380C0, symSize: 0x0 }
  - { offsetInCU: 0x9B50, offset: 0x40544, size: 0x8, addend: 0x0, symName: __ZNSt3__16vectorIP4MeshNS_9allocatorIS2_EEE26__swap_out_circular_bufferERNS_14__split_bufferIS2_RS4_EE, symObjAddr: 0x46E8, symBinAddr: 0x10002C218, symSize: 0x118 }
  - { offsetInCU: 0x9BA7, offset: 0x4059B, size: 0x8, addend: 0x0, symName: __ZNSt3__16vectorIP11SceneObjectNS_9allocatorIS2_EEE26__swap_out_circular_bufferERNS_14__split_bufferIS2_RS4_EE, symObjAddr: 0x6138, symBinAddr: 0x10002D828, symSize: 0x118 }
  - { offsetInCU: 0x9C0D, offset: 0x40601, size: 0x8, addend: 0x0, symName: __ZNSt3__16vectorIP6ShaderNS_9allocatorIS2_EEE26__swap_out_circular_bufferERNS_14__split_bufferIS2_RS4_EE, symObjAddr: 0x83B8, symBinAddr: 0x10002FAA8, symSize: 0x118 }
  - { offsetInCU: 0xBACD, offset: 0x424C1, size: 0x8, addend: 0x0, symName: __ZN6Window9getWindowEv, symObjAddr: 0x200, symBinAddr: 0x100028938, symSize: 0x18 }
  - { offsetInCU: 0xBAF2, offset: 0x424E6, size: 0x8, addend: 0x0, symName: __Z14initMainCameraP6Window, symObjAddr: 0x218, symBinAddr: 0x100028950, symSize: 0x64 }
  - { offsetInCU: 0xBB1C, offset: 0x42510, size: 0x8, addend: 0x0, symName: __ZN6CameraC1EP6Window, symObjAddr: 0x27C, symBinAddr: 0x1000289B4, symSize: 0x34 }
  - { offsetInCU: 0xBB54, offset: 0x42548, size: 0x8, addend: 0x0, symName: __Z13getMainCamerav, symObjAddr: 0x2B0, symBinAddr: 0x1000289E8, symSize: 0x44 }
  - { offsetInCU: 0xBB71, offset: 0x42565, size: 0x8, addend: 0x0, symName: __Z18linkTextureAndMeshP6ShaderN3glm3vecILi3EfLNS1_9qualifierE0EEES4_iP4Mesh, symObjAddr: 0x2F4, symBinAddr: 0x100028A2C, symSize: 0x214 }
  - { offsetInCU: 0xBBE2, offset: 0x425D6, size: 0x8, addend: 0x0, symName: __ZN6Shader18GetUniformLocationEPKc, symObjAddr: 0x7E0, symBinAddr: 0x100028F18, symSize: 0x3C }
  - { offsetInCU: 0xBC15, offset: 0x42609, size: 0x8, addend: 0x0, symName: __Z10getTexturePKci, symObjAddr: 0x858, symBinAddr: 0x100028F90, symSize: 0x12C }
  - { offsetInCU: 0xBC95, offset: 0x42689, size: 0x8, addend: 0x0, symName: __Z19loadTextureAndModelPKcS0_PjP4Meshi, symObjAddr: 0xA50, symBinAddr: 0x1000290BC, symSize: 0x84 }
  - { offsetInCU: 0xBCF7, offset: 0x426EB, size: 0x8, addend: 0x0, symName: __ZN6TikTokC1Ev, symObjAddr: 0xAD4, symBinAddr: 0x100029140, symSize: 0x2C }
  - { offsetInCU: 0xBD21, offset: 0x42715, size: 0x8, addend: 0x0, symName: __Z9GetTikTokv, symObjAddr: 0xB00, symBinAddr: 0x10002916C, symSize: 0xC }
  - { offsetInCU: 0xBD3F, offset: 0x42733, size: 0x8, addend: 0x0, symName: __ZN6TikTok5getDtEv, symObjAddr: 0xDFC, symBinAddr: 0x100029468, symSize: 0x18 }
  - { offsetInCU: 0xBD65, offset: 0x42759, size: 0x8, addend: 0x0, symName: __ZN3glm3vecILi3EfLNS_9qualifierE0EEpLIfEERS2_RKNS0_ILi3ET_LS1_0EEE, symObjAddr: 0xE78, symBinAddr: 0x1000294E4, symSize: 0x54 }
  - { offsetInCU: 0xBDA4, offset: 0x42798, size: 0x8, addend: 0x0, symName: __ZN3glm3vecILi3EfLNS_9qualifierE0EEmIIfEERS2_RKNS0_ILi3ET_LS1_0EEE, symObjAddr: 0xECC, symBinAddr: 0x100029538, symSize: 0x54 }
  - { offsetInCU: 0xBDE3, offset: 0x427D7, size: 0x8, addend: 0x0, symName: __Z18CreateTriangleMeshv, symObjAddr: 0xF64, symBinAddr: 0x1000295D0, symSize: 0xD8 }
  - { offsetInCU: 0xBE2C, offset: 0x42820, size: 0x8, addend: 0x0, symName: __Z11AddTriangleNSt3__16vectorIP4MeshNS_9allocatorIS2_EEEE, symObjAddr: 0x103C, symBinAddr: 0x1000296A8, symSize: 0x4C }
  - { offsetInCU: 0xBE57, offset: 0x4284B, size: 0x8, addend: 0x0, symName: __ZNSt3__16vectorIP4MeshNS_9allocatorIS2_EEE9push_backB7v160006EOS2_, symObjAddr: 0x1088, symBinAddr: 0x1000296F4, symSize: 0x6C }
  - { offsetInCU: 0xBE8E, offset: 0x42882, size: 0x8, addend: 0x0, symName: __Z11setNewWorldv, symObjAddr: 0x10F4, symBinAddr: 0x100029760, symSize: 0x40 }
  - { offsetInCU: 0xBEA8, offset: 0x4289C, size: 0x8, addend: 0x0, symName: __ZN5WorldC1Ev, symObjAddr: 0x1134, symBinAddr: 0x1000297A0, symSize: 0x2C }
  - { offsetInCU: 0xBED4, offset: 0x428C8, size: 0x8, addend: 0x0, symName: __Z12getMainWorldv, symObjAddr: 0x1160, symBinAddr: 0x1000297CC, symSize: 0x38 }
  - { offsetInCU: 0xBEF2, offset: 0x428E6, size: 0x8, addend: 0x0, symName: __ZNSt3__16vectorIP4MeshNS_9allocatorIS2_EEEC1B7v160006Ev, symObjAddr: 0x1198, symBinAddr: 0x100029804, symSize: 0x2C }
  - { offsetInCU: 0xBF1C, offset: 0x42910, size: 0x8, addend: 0x0, symName: __ZNSt3__16vectorIP4MeshNS_9allocatorIS2_EEED1B7v160006Ev, symObjAddr: 0x11C4, symBinAddr: 0x100029830, symSize: 0x2C }
  - { offsetInCU: 0xBF46, offset: 0x4293A, size: 0x8, addend: 0x0, symName: __ZNSt3__16vectorIP6ShaderNS_9allocatorIS2_EEEC1B7v160006Ev, symObjAddr: 0x11F0, symBinAddr: 0x10002985C, symSize: 0x2C }
  - { offsetInCU: 0xBF70, offset: 0x42964, size: 0x8, addend: 0x0, symName: __ZNSt3__16vectorIP6ShaderNS_9allocatorIS2_EEED1B7v160006Ev, symObjAddr: 0x121C, symBinAddr: 0x100029888, symSize: 0x2C }
  - { offsetInCU: 0xBF9A, offset: 0x4298E, size: 0x8, addend: 0x0, symName: __ZNSt3__16vectorIP11SceneObjectNS_9allocatorIS2_EEEC1B7v160006Ev, symObjAddr: 0x1248, symBinAddr: 0x1000298B4, symSize: 0x2C }
  - { offsetInCU: 0xBFC4, offset: 0x429B8, size: 0x8, addend: 0x0, symName: __ZNSt3__16vectorIP11SceneObjectNS_9allocatorIS2_EEED1B7v160006Ev, symObjAddr: 0x1274, symBinAddr: 0x1000298E0, symSize: 0x2C }
  - { offsetInCU: 0xBFED, offset: 0x429E1, size: 0x8, addend: 0x0, symName: __Z13CreateShadersv, symObjAddr: 0x12A0, symBinAddr: 0x10002990C, symSize: 0xDC }
  - { offsetInCU: 0xC017, offset: 0x42A0B, size: 0x8, addend: 0x0, symName: __ZNSt3__16vectorIP6ShaderNS_9allocatorIS2_EEE9push_backB7v160006ERKS2_, symObjAddr: 0x137C, symBinAddr: 0x1000299E8, symSize: 0x6C }
  - { offsetInCU: 0xC04D, offset: 0x42A41, size: 0x8, addend: 0x0, symName: __Z14createSuzannesv, symObjAddr: 0x13E8, symBinAddr: 0x100029A54, symSize: 0x178 }
  - { offsetInCU: 0xC0BB, offset: 0x42AAF, size: 0x8, addend: 0x0, symName: __ZNSt3__16vectorIP6ShaderNS_9allocatorIS2_EEEixB7v160006Em, symObjAddr: 0x1560, symBinAddr: 0x100029BCC, symSize: 0x24 }
  - { offsetInCU: 0xC0F2, offset: 0x42AE6, size: 0x8, addend: 0x0, symName: __ZN11SceneObjectC1EPKcS1_iP6Shader, symObjAddr: 0x1584, symBinAddr: 0x100029BF0, symSize: 0x4C }
  - { offsetInCU: 0xC153, offset: 0x42B47, size: 0x8, addend: 0x0, symName: __Z3cosB7v160006f, symObjAddr: 0x15D0, symBinAddr: 0x100029C3C, symSize: 0x24 }
  - { offsetInCU: 0xC181, offset: 0x42B75, size: 0x8, addend: 0x0, symName: __Z3sinB7v160006f, symObjAddr: 0x1618, symBinAddr: 0x100029C84, symSize: 0x24 }
  - { offsetInCU: 0xC1B0, offset: 0x42BA4, size: 0x8, addend: 0x0, symName: __ZN3glm3vecILi3EfLNS_9qualifierE0EEC1IffiEET_T0_T1_, symObjAddr: 0x163C, symBinAddr: 0x100029CA8, symSize: 0x44 }
  - { offsetInCU: 0xC221, offset: 0x42C15, size: 0x8, addend: 0x0, symName: __ZNSt3__16vectorIP11SceneObjectNS_9allocatorIS2_EEE9push_backB7v160006ERKS2_, symObjAddr: 0x1680, symBinAddr: 0x100029CEC, symSize: 0x6C }
  - { offsetInCU: 0xC258, offset: 0x42C4C, size: 0x8, addend: 0x0, symName: _main, symObjAddr: 0x16EC, symBinAddr: 0x100029D58, symSize: 0x55C }
  - { offsetInCU: 0xC2FF, offset: 0x42CF3, size: 0x8, addend: 0x0, symName: __ZN3glm3vecILi3EfLNS_9qualifierE0EEC1Efff, symObjAddr: 0x1C48, symBinAddr: 0x10002A2B4, symSize: 0x44 }
  - { offsetInCU: 0xC355, offset: 0x42D49, size: 0x8, addend: 0x0, symName: __ZN6Window14getShouldCloseEv, symObjAddr: 0x1C8C, symBinAddr: 0x10002A2F8, symSize: 0x34 }
  - { offsetInCU: 0xC37B, offset: 0x42D6F, size: 0x8, addend: 0x0, symName: __ZN6Camera12updateCameraEv, symObjAddr: 0x1CC0, symBinAddr: 0x10002A32C, symSize: 0x180 }
  - { offsetInCU: 0xC3CC, offset: 0x42DC0, size: 0x8, addend: 0x0, symName: __ZN3glm3vecILi3EfLNS_9qualifierE0EEC1IiiiEET_T0_T1_, symObjAddr: 0x1E40, symBinAddr: 0x10002A4AC, symSize: 0x44 }
  - { offsetInCU: 0xC43D, offset: 0x42E31, size: 0x8, addend: 0x0, symName: __ZN11SceneObject12renderObjectEv, symObjAddr: 0x1E84, symBinAddr: 0x10002A4F0, symSize: 0x68 }
  - { offsetInCU: 0xC463, offset: 0x42E57, size: 0x8, addend: 0x0, symName: __ZNKSt3__16vectorIP11SceneObjectNS_9allocatorIS2_EEE4sizeB7v160006Ev, symObjAddr: 0x1EEC, symBinAddr: 0x10002A558, symSize: 0x28 }
  - { offsetInCU: 0xC489, offset: 0x42E7D, size: 0x8, addend: 0x0, symName: __ZNSt3__16vectorIP11SceneObjectNS_9allocatorIS2_EEEixB7v160006Em, symObjAddr: 0x1F14, symBinAddr: 0x10002A580, symSize: 0x24 }
  - { offsetInCU: 0xC4C0, offset: 0x42EB4, size: 0x8, addend: 0x0, symName: __ZN6TikTok11setNewFrameEv, symObjAddr: 0x1F38, symBinAddr: 0x10002A5A4, symSize: 0x4C }
  - { offsetInCU: 0xC4E6, offset: 0x42EDA, size: 0x8, addend: 0x0, symName: __ZN6Window11swapBuffersEv, symObjAddr: 0x1F84, symBinAddr: 0x10002A5F0, symSize: 0x28 }
  - { offsetInCU: 0xC50C, offset: 0x42F00, size: 0x8, addend: 0x0, symName: __ZN11SceneObjectD1Ev, symObjAddr: 0x1FAC, symBinAddr: 0x10002A618, symSize: 0x2C }
  - { offsetInCU: 0xC538, offset: 0x42F2C, size: 0x8, addend: 0x0, symName: __ZN6CameraC2EP6Window, symObjAddr: 0x1FD8, symBinAddr: 0x10002A644, symSize: 0x1AC }
  - { offsetInCU: 0xC570, offset: 0x42F64, size: 0x8, addend: 0x0, symName: __ZN3glm3matILi4ELi4EfLNS_9qualifierE0EEC1Ef, symObjAddr: 0x2230, symBinAddr: 0x10002A89C, symSize: 0x34 }
  - { offsetInCU: 0xC5A9, offset: 0x42F9D, size: 0x8, addend: 0x0, symName: __ZN6Window14getBufferWidthEv, symObjAddr: 0x22A0, symBinAddr: 0x10002A90C, symSize: 0x18 }
  - { offsetInCU: 0xC5CF, offset: 0x42FC3, size: 0x8, addend: 0x0, symName: __ZN6Window15getBufferHeightEv, symObjAddr: 0x22B8, symBinAddr: 0x10002A924, symSize: 0x18 }
  - { offsetInCU: 0xC5F5, offset: 0x42FE9, size: 0x8, addend: 0x0, symName: __ZN3glm6detail17compute_normalizeILi3EfLNS_9qualifierE0ELb0EE4callERKNS_3vecILi3EfLS2_0EEE, symObjAddr: 0x22D0, symBinAddr: 0x10002A93C, symSize: 0x54 }
  - { offsetInCU: 0xC617, offset: 0x4300B, size: 0x8, addend: 0x0, symName: __Z4sqrtB7v160006f, symObjAddr: 0x2380, symBinAddr: 0x10002A9EC, symSize: 0x18 }
  - { offsetInCU: 0xC646, offset: 0x4303A, size: 0x8, addend: 0x0, symName: __ZN3glm6detail11compute_dotINS_3vecILi3EfLNS_9qualifierE0EEEfLb0EE4callERKS4_S7_, symObjAddr: 0x2398, symBinAddr: 0x10002AA04, symSize: 0x4C }
  - { offsetInCU: 0xC685, offset: 0x43079, size: 0x8, addend: 0x0, symName: __ZN3glm3matILi4ELi4EfLNS_9qualifierE0EEC2Ef, symObjAddr: 0x2454, symBinAddr: 0x10002AAC0, symSize: 0x98 }
  - { offsetInCU: 0xC6BE, offset: 0x430B2, size: 0x8, addend: 0x0, symName: __ZN3glm3vecILi4EfLNS_9qualifierE0EEC1IfiiiEET_T0_T1_T2_, symObjAddr: 0x24EC, symBinAddr: 0x10002AB58, symSize: 0x4C }
  - { offsetInCU: 0xC746, offset: 0x4313A, size: 0x8, addend: 0x0, symName: __ZN3glm3vecILi4EfLNS_9qualifierE0EEC1IifiiEET_T0_T1_T2_, symObjAddr: 0x2538, symBinAddr: 0x10002ABA4, symSize: 0x4C }
  - { offsetInCU: 0xC7CE, offset: 0x431C2, size: 0x8, addend: 0x0, symName: __ZN3glm3vecILi4EfLNS_9qualifierE0EEC1IiifiEET_T0_T1_T2_, symObjAddr: 0x2584, symBinAddr: 0x10002ABF0, symSize: 0x4C }
  - { offsetInCU: 0xC856, offset: 0x4324A, size: 0x8, addend: 0x0, symName: __ZN3glm3vecILi4EfLNS_9qualifierE0EEC1IiiifEET_T0_T1_T2_, symObjAddr: 0x25D0, symBinAddr: 0x10002AC3C, symSize: 0x4C }
  - { offsetInCU: 0xC8DE, offset: 0x432D2, size: 0x8, addend: 0x0, symName: __ZN3glm3vecILi4EfLNS_9qualifierE0EEC2IfiiiEET_T0_T1_T2_, symObjAddr: 0x261C, symBinAddr: 0x10002AC88, symSize: 0x50 }
  - { offsetInCU: 0xC966, offset: 0x4335A, size: 0x8, addend: 0x0, symName: __ZN3glm3vecILi4EfLNS_9qualifierE0EEC2IifiiEET_T0_T1_T2_, symObjAddr: 0x266C, symBinAddr: 0x10002ACD8, symSize: 0x50 }
  - { offsetInCU: 0xC9EE, offset: 0x433E2, size: 0x8, addend: 0x0, symName: __ZN3glm3vecILi4EfLNS_9qualifierE0EEC2IiifiEET_T0_T1_T2_, symObjAddr: 0x26BC, symBinAddr: 0x10002AD28, symSize: 0x50 }
  - { offsetInCU: 0xCA76, offset: 0x4346A, size: 0x8, addend: 0x0, symName: __ZN3glm3vecILi4EfLNS_9qualifierE0EEC2IiiifEET_T0_T1_T2_, symObjAddr: 0x270C, symBinAddr: 0x10002AD78, symSize: 0x50 }
  - { offsetInCU: 0xCAFE, offset: 0x434F2, size: 0x8, addend: 0x0, symName: __ZNSt3__114numeric_limitsIfE7epsilonB7v160006Ev, symObjAddr: 0x2948, symBinAddr: 0x10002AFB4, symSize: 0x14 }
  - { offsetInCU: 0xCB11, offset: 0x43505, size: 0x8, addend: 0x0, symName: __Z3tanB7v160006f, symObjAddr: 0x295C, symBinAddr: 0x10002AFC8, symSize: 0x24 }
  - { offsetInCU: 0xCB40, offset: 0x43534, size: 0x8, addend: 0x0, symName: __ZN3glm3matILi4ELi4EfLNS_9qualifierE0EEixEi, symObjAddr: 0x2980, symBinAddr: 0x10002AFEC, symSize: 0x90 }
  - { offsetInCU: 0xCB77, offset: 0x4356B, size: 0x8, addend: 0x0, symName: __ZN3glm3vecILi4EfLNS_9qualifierE0EEixEi, symObjAddr: 0x2A10, symBinAddr: 0x10002B07C, symSize: 0x10C }
  - { offsetInCU: 0xCBAE, offset: 0x435A2, size: 0x8, addend: 0x0, symName: __ZN3glm6detail11compute_absIfLb1EE4callEf, symObjAddr: 0x2B2C, symBinAddr: 0x10002B198, symSize: 0x44 }
  - { offsetInCU: 0xCBD1, offset: 0x435C5, size: 0x8, addend: 0x0, symName: __ZNSt3__123__libcpp_numeric_limitsIfLb1EE7epsilonB7v160006Ev, symObjAddr: 0x2B70, symBinAddr: 0x10002B1DC, symSize: 0x8 }
  - { offsetInCU: 0xCBE5, offset: 0x435D9, size: 0x8, addend: 0x0, symName: __ZN3glm3matILi4ELi4EfLNS_9qualifierE0EE6lengthEv, symObjAddr: 0x2B78, symBinAddr: 0x10002B1E4, symSize: 0x8 }
  - { offsetInCU: 0xCBF9, offset: 0x435ED, size: 0x8, addend: 0x0, symName: __ZN3glm3vecILi4EfLNS_9qualifierE0EE6lengthEv, symObjAddr: 0x2B8C, symBinAddr: 0x10002B1EC, symSize: 0x8 }
  - { offsetInCU: 0xCC0D, offset: 0x43601, size: 0x8, addend: 0x0, symName: __ZNK3glm3matILi4ELi4EfLNS_9qualifierE0EEixEi, symObjAddr: 0x2C34, symBinAddr: 0x10002B294, symSize: 0x84 }
  - { offsetInCU: 0xCC44, offset: 0x43638, size: 0x8, addend: 0x0, symName: __ZNK3glm3vecILi3EfLNS_9qualifierE0EEixEi, symObjAddr: 0x2CB8, symBinAddr: 0x10002B318, symSize: 0x108 }
  - { offsetInCU: 0xCC7A, offset: 0x4366E, size: 0x8, addend: 0x0, symName: __ZN3glm3vecILi4EfLNS_9qualifierE0EEpLIfEERS2_RKNS0_ILi4ET_LS1_0EEE, symObjAddr: 0x2DC0, symBinAddr: 0x10002B420, symSize: 0x58 }
  - { offsetInCU: 0xCCBB, offset: 0x436AF, size: 0x8, addend: 0x0, symName: __ZN3glm6detail16compute_vec4_addIfLNS_9qualifierE0ELb0EE4callERKNS_3vecILi4EfLS2_0EEES7_, symObjAddr: 0x2E18, symBinAddr: 0x10002B478, symSize: 0x88 }
  - { offsetInCU: 0xCCEC, offset: 0x436E0, size: 0x8, addend: 0x0, symName: __ZN3glm3vecILi4EfLNS_9qualifierE0EEC1Effff, symObjAddr: 0x2EA0, symBinAddr: 0x10002B500, symSize: 0x4C }
  - { offsetInCU: 0xCD50, offset: 0x43744, size: 0x8, addend: 0x0, symName: __ZN3glm3vecILi4EfLNS_9qualifierE0EEC2Effff, symObjAddr: 0x2EEC, symBinAddr: 0x10002B54C, symSize: 0x44 }
  - { offsetInCU: 0xCDB4, offset: 0x437A8, size: 0x8, addend: 0x0, symName: __ZN3glm3vecILi4EfLNS_9qualifierE0EEmLIfEERS2_T_, symObjAddr: 0x2F30, symBinAddr: 0x10002B590, symSize: 0x60 }
  - { offsetInCU: 0xCDF5, offset: 0x437E9, size: 0x8, addend: 0x0, symName: __ZN3glm6detail16compute_vec4_mulIfLNS_9qualifierE0ELb0EE4callERKNS_3vecILi4EfLS2_0EEES7_, symObjAddr: 0x2F90, symBinAddr: 0x10002B5F0, symSize: 0x88 }
  - { offsetInCU: 0xCE26, offset: 0x4381A, size: 0x8, addend: 0x0, symName: __ZN3glm3vecILi4EfLNS_9qualifierE0EEC1Ef, symObjAddr: 0x3018, symBinAddr: 0x10002B678, symSize: 0x34 }
  - { offsetInCU: 0xCE60, offset: 0x43854, size: 0x8, addend: 0x0, symName: __ZN3glm3vecILi4EfLNS_9qualifierE0EEC2Ef, symObjAddr: 0x304C, symBinAddr: 0x10002B6AC, symSize: 0x38 }
  - { offsetInCU: 0xCE9A, offset: 0x4388E, size: 0x8, addend: 0x0, symName: __ZN3glm3vecILi3EfLNS_9qualifierE0EE6lengthEv, symObjAddr: 0x3084, symBinAddr: 0x10002B6E4, symSize: 0x8 }
  - { offsetInCU: 0xCEAE, offset: 0x438A2, size: 0x8, addend: 0x0, symName: __ZN6TikTokC2Ev, symObjAddr: 0x308C, symBinAddr: 0x10002B6EC, symSize: 0x48 }
  - { offsetInCU: 0xCED8, offset: 0x438CC, size: 0x8, addend: 0x0, symName: __ZN3glm6detail13compute_crossIfLNS_9qualifierE0ELb0EE4callERKNS_3vecILi3EfLS2_0EEES7_, symObjAddr: 0x30D4, symBinAddr: 0x10002B734, symSize: 0xAC }
  - { offsetInCU: 0xCF09, offset: 0x438FD, size: 0x8, addend: 0x0, symName: __ZN5WorldC2Ev, symObjAddr: 0x3180, symBinAddr: 0x10002B7E0, symSize: 0x2C }
  - { offsetInCU: 0xCF35, offset: 0x43929, size: 0x8, addend: 0x0, symName: __ZN11SceneObjectC2EPKcS1_iP6Shader, symObjAddr: 0x31AC, symBinAddr: 0x10002B80C, symSize: 0xB4 }
  - { offsetInCU: 0xCF97, offset: 0x4398B, size: 0x8, addend: 0x0, symName: __ZN3glm3vecILi3EfLNS_9qualifierE0EEC1Ef, symObjAddr: 0x3260, symBinAddr: 0x10002B8C0, symSize: 0x34 }
  - { offsetInCU: 0xCFD1, offset: 0x439C5, size: 0x8, addend: 0x0, symName: __ZN3glm3vecILi3EfLNS_9qualifierE0EEC2Ef, symObjAddr: 0x3294, symBinAddr: 0x10002B8F4, symSize: 0x30 }
  - { offsetInCU: 0xD00B, offset: 0x439FF, size: 0x8, addend: 0x0, symName: __ZN3glm3vecILi3EfLNS_9qualifierE0EEC2IffiEET_T0_T1_, symObjAddr: 0x32C4, symBinAddr: 0x10002B924, symSize: 0x3C }
  - { offsetInCU: 0xD07C, offset: 0x43A70, size: 0x8, addend: 0x0, symName: __ZN3glm3vecILi3EfLNS_9qualifierE0EEC2Efff, symObjAddr: 0x3300, symBinAddr: 0x10002B960, symSize: 0x38 }
  - { offsetInCU: 0xD0D2, offset: 0x43AC6, size: 0x8, addend: 0x0, symName: __ZN3glm3vecILi3EfLNS_9qualifierE0EEC2IiiiEET_T0_T1_, symObjAddr: 0x36C0, symBinAddr: 0x10002BD20, symSize: 0x44 }
  - { offsetInCU: 0xD143, offset: 0x43B37, size: 0x8, addend: 0x0, symName: __ZN11SceneObjectD2Ev, symObjAddr: 0x3704, symBinAddr: 0x10002BD64, symSize: 0x30 }
  - { offsetInCU: 0xD175, offset: 0x43B69, size: 0x8, addend: 0x0, symName: __ZNSt3__16vectorIP4MeshNS_9allocatorIS2_EEE9__end_capB7v160006Ev, symObjAddr: 0x4264, symBinAddr: 0x10002BD94, symSize: 0x28 }
  - { offsetInCU: 0xD1A1, offset: 0x43B95, size: 0x8, addend: 0x0, symName: __ZNSt3__16vectorIP4MeshNS_9allocatorIS2_EEE22__construct_one_at_endB7v160006IJS2_EEEvDpOT_, symObjAddr: 0x428C, symBinAddr: 0x10002BDBC, symSize: 0x90 }
  - { offsetInCU: 0xD1F0, offset: 0x43BE4, size: 0x8, addend: 0x0, symName: __ZNSt3__16vectorIP4MeshNS_9allocatorIS2_EEE21__push_back_slow_pathIS2_EEvOT_, symObjAddr: 0x431C, symBinAddr: 0x10002BE4C, symSize: 0xD8 }
  - { offsetInCU: 0xD24E, offset: 0x43C42, size: 0x8, addend: 0x0, symName: __ZNSt3__117__compressed_pairIPP4MeshNS_9allocatorIS2_EEE5firstB7v160006Ev, symObjAddr: 0x43F4, symBinAddr: 0x10002BF24, symSize: 0x24 }
  - { offsetInCU: 0xD274, offset: 0x43C68, size: 0x8, addend: 0x0, symName: __ZNSt3__122__compressed_pair_elemIPP4MeshLi0ELb0EE5__getB7v160006Ev, symObjAddr: 0x4418, symBinAddr: 0x10002BF48, symSize: 0x14 }
  - { offsetInCU: 0xD2B3, offset: 0x43CA7, size: 0x8, addend: 0x0, symName: __ZNSt3__16vectorIP4MeshNS_9allocatorIS2_EEE21_ConstructTransactionC1B7v160006ERS5_m, symObjAddr: 0x442C, symBinAddr: 0x10002BF5C, symSize: 0x3C }
  - { offsetInCU: 0xD2FB, offset: 0x43CEF, size: 0x8, addend: 0x0, symName: __ZNSt3__116allocator_traitsINS_9allocatorIP4MeshEEE9constructB7v160006IS3_JS3_EvEEvRS4_PT_DpOT0_, symObjAddr: 0x4468, symBinAddr: 0x10002BF98, symSize: 0x34 }
  - { offsetInCU: 0xD352, offset: 0x43D46, size: 0x8, addend: 0x0, symName: __ZNSt3__16vectorIP4MeshNS_9allocatorIS2_EEE7__allocB7v160006Ev, symObjAddr: 0x449C, symBinAddr: 0x10002BFCC, symSize: 0x28 }
  - { offsetInCU: 0xD378, offset: 0x43D6C, size: 0x8, addend: 0x0, symName: __ZNSt3__16vectorIP4MeshNS_9allocatorIS2_EEE21_ConstructTransactionD1B7v160006Ev, symObjAddr: 0x44D8, symBinAddr: 0x10002C008, symSize: 0x2C }
  - { offsetInCU: 0xD3A2, offset: 0x43D96, size: 0x8, addend: 0x0, symName: __ZNSt3__16vectorIP4MeshNS_9allocatorIS2_EEE21_ConstructTransactionC2B7v160006ERS5_m, symObjAddr: 0x4504, symBinAddr: 0x10002C034, symSize: 0x44 }
  - { offsetInCU: 0xD3EA, offset: 0x43DDE, size: 0x8, addend: 0x0, symName: __ZNSt3__19allocatorIP4MeshE9constructB7v160006IS2_JS2_EEEvPT_DpOT0_, symObjAddr: 0x4548, symBinAddr: 0x10002C078, symSize: 0x28 }
  - { offsetInCU: 0xD440, offset: 0x43E34, size: 0x8, addend: 0x0, symName: __ZNSt3__117__compressed_pairIPP4MeshNS_9allocatorIS2_EEE6secondB7v160006Ev, symObjAddr: 0x4570, symBinAddr: 0x10002C0A0, symSize: 0x24 }
  - { offsetInCU: 0xD466, offset: 0x43E5A, size: 0x8, addend: 0x0, symName: __ZNSt3__122__compressed_pair_elemINS_9allocatorIP4MeshEELi1ELb1EE5__getB7v160006Ev, symObjAddr: 0x4594, symBinAddr: 0x10002C0C4, symSize: 0x14 }
  - { offsetInCU: 0xD48C, offset: 0x43E80, size: 0x8, addend: 0x0, symName: __ZNSt3__16vectorIP4MeshNS_9allocatorIS2_EEE21_ConstructTransactionD2B7v160006Ev, symObjAddr: 0x45A8, symBinAddr: 0x10002C0D8, symSize: 0x20 }
  - { offsetInCU: 0xD4B6, offset: 0x43EAA, size: 0x8, addend: 0x0, symName: __ZNKSt3__16vectorIP4MeshNS_9allocatorIS2_EEE11__recommendB7v160006Em, symObjAddr: 0x45C8, symBinAddr: 0x10002C0F8, symSize: 0xB4 }
  - { offsetInCU: 0xD50B, offset: 0x43EFF, size: 0x8, addend: 0x0, symName: __ZNKSt3__16vectorIP4MeshNS_9allocatorIS2_EEE4sizeB7v160006Ev, symObjAddr: 0x467C, symBinAddr: 0x10002C1AC, symSize: 0x28 }
  - { offsetInCU: 0xD531, offset: 0x43F25, size: 0x8, addend: 0x0, symName: __ZNSt3__114__split_bufferIP4MeshRNS_9allocatorIS2_EEEC1EmmS5_, symObjAddr: 0x46A4, symBinAddr: 0x10002C1D4, symSize: 0x44 }
  - { offsetInCU: 0xD587, offset: 0x43F7B, size: 0x8, addend: 0x0, symName: __ZNSt3__114__split_bufferIP4MeshRNS_9allocatorIS2_EEED1Ev, symObjAddr: 0x4800, symBinAddr: 0x10002C330, symSize: 0x2C }
  - { offsetInCU: 0xD5B3, offset: 0x43FA7, size: 0x8, addend: 0x0, symName: __ZNKSt3__16vectorIP4MeshNS_9allocatorIS2_EEE8max_sizeEv, symObjAddr: 0x482C, symBinAddr: 0x10002C35C, symSize: 0x60 }
  - { offsetInCU: 0xD5DB, offset: 0x43FCF, size: 0x8, addend: 0x0, symName: __ZNKSt3__16vectorIP4MeshNS_9allocatorIS2_EEE20__throw_length_errorB7v160006Ev, symObjAddr: 0x488C, symBinAddr: 0x10002C3BC, symSize: 0x1C }
  - { offsetInCU: 0xD601, offset: 0x43FF5, size: 0x8, addend: 0x0, symName: __ZNKSt3__16vectorIP4MeshNS_9allocatorIS2_EEE8capacityB7v160006Ev, symObjAddr: 0x48A8, symBinAddr: 0x10002C3D8, symSize: 0x40 }
  - { offsetInCU: 0xD631, offset: 0x44025, size: 0x8, addend: 0x0, symName: __ZNSt3__116allocator_traitsINS_9allocatorIP4MeshEEE8max_sizeB7v160006IS4_vEEmRKS4_, symObjAddr: 0x4940, symBinAddr: 0x10002C418, symSize: 0x24 }
  - { offsetInCU: 0xD65F, offset: 0x44053, size: 0x8, addend: 0x0, symName: __ZNKSt3__16vectorIP4MeshNS_9allocatorIS2_EEE7__allocB7v160006Ev, symObjAddr: 0x4964, symBinAddr: 0x10002C43C, symSize: 0x28 }
  - { offsetInCU: 0xD685, offset: 0x44079, size: 0x8, addend: 0x0, symName: __ZNKSt3__19allocatorIP4MeshE8max_sizeB7v160006Ev, symObjAddr: 0x4A28, symBinAddr: 0x10002C464, symSize: 0x14 }
  - { offsetInCU: 0xD6AB, offset: 0x4409F, size: 0x8, addend: 0x0, symName: __ZNKSt3__117__compressed_pairIPP4MeshNS_9allocatorIS2_EEE6secondB7v160006Ev, symObjAddr: 0x4A3C, symBinAddr: 0x10002C478, symSize: 0x24 }
  - { offsetInCU: 0xD6D1, offset: 0x440C5, size: 0x8, addend: 0x0, symName: __ZNKSt3__122__compressed_pair_elemINS_9allocatorIP4MeshEELi1ELb1EE5__getB7v160006Ev, symObjAddr: 0x4A60, symBinAddr: 0x10002C49C, symSize: 0x14 }
  - { offsetInCU: 0xD6F7, offset: 0x440EB, size: 0x8, addend: 0x0, symName: __ZNKSt3__16vectorIP4MeshNS_9allocatorIS2_EEE9__end_capB7v160006Ev, symObjAddr: 0x4B60, symBinAddr: 0x10002C4B0, symSize: 0x28 }
  - { offsetInCU: 0xD71D, offset: 0x44111, size: 0x8, addend: 0x0, symName: __ZNKSt3__117__compressed_pairIPP4MeshNS_9allocatorIS2_EEE5firstB7v160006Ev, symObjAddr: 0x4B88, symBinAddr: 0x10002C4D8, symSize: 0x24 }
  - { offsetInCU: 0xD743, offset: 0x44137, size: 0x8, addend: 0x0, symName: __ZNKSt3__122__compressed_pair_elemIPP4MeshLi0ELb0EE5__getB7v160006Ev, symObjAddr: 0x4BAC, symBinAddr: 0x10002C4FC, symSize: 0x14 }
  - { offsetInCU: 0xD769, offset: 0x4415D, size: 0x8, addend: 0x0, symName: __ZNSt3__114__split_bufferIP4MeshRNS_9allocatorIS2_EEEC2EmmS5_, symObjAddr: 0x4C14, symBinAddr: 0x10002C510, symSize: 0xD4 }
  - { offsetInCU: 0xD7E2, offset: 0x441D6, size: 0x8, addend: 0x0, symName: __ZNSt3__117__compressed_pairIPP4MeshRNS_9allocatorIS2_EEEC1B7v160006IDnS6_EEOT_OT0_, symObjAddr: 0x4CE8, symBinAddr: 0x10002C5E4, symSize: 0x3C }
  - { offsetInCU: 0xD83A, offset: 0x4422E, size: 0x8, addend: 0x0, symName: __ZNSt3__114__split_bufferIP4MeshRNS_9allocatorIS2_EEE7__allocB7v160006Ev, symObjAddr: 0x4D64, symBinAddr: 0x10002C660, symSize: 0x28 }
  - { offsetInCU: 0xD860, offset: 0x44254, size: 0x8, addend: 0x0, symName: __ZNSt3__114__split_bufferIP4MeshRNS_9allocatorIS2_EEE9__end_capB7v160006Ev, symObjAddr: 0x4D8C, symBinAddr: 0x10002C688, symSize: 0x28 }
  - { offsetInCU: 0xD886, offset: 0x4427A, size: 0x8, addend: 0x0, symName: __ZNSt3__117__compressed_pairIPP4MeshRNS_9allocatorIS2_EEEC2B7v160006IDnS6_EEOT_OT0_, symObjAddr: 0x4DB4, symBinAddr: 0x10002C6B0, symSize: 0x48 }
  - { offsetInCU: 0xD8DE, offset: 0x442D2, size: 0x8, addend: 0x0, symName: __ZNSt3__122__compressed_pair_elemIPP4MeshLi0ELb0EEC2B7v160006IDnvEEOT_, symObjAddr: 0x4DFC, symBinAddr: 0x10002C6F8, symSize: 0x1C }
  - { offsetInCU: 0xD920, offset: 0x44314, size: 0x8, addend: 0x0, symName: __ZNSt3__122__compressed_pair_elemIRNS_9allocatorIP4MeshEELi1ELb0EEC2B7v160006IS5_vEEOT_, symObjAddr: 0x4E18, symBinAddr: 0x10002C714, symSize: 0x20 }
  - { offsetInCU: 0xD962, offset: 0x44356, size: 0x8, addend: 0x0, symName: __ZNSt3__19allocatorIP4MeshE8allocateB7v160006Em, symObjAddr: 0x4E38, symBinAddr: 0x10002C734, symSize: 0x58 }
  - { offsetInCU: 0xD996, offset: 0x4438A, size: 0x8, addend: 0x0, symName: __ZNSt3__117__compressed_pairIPP4MeshRNS_9allocatorIS2_EEE6secondB7v160006Ev, symObjAddr: 0x4F94, symBinAddr: 0x10002C78C, symSize: 0x28 }
  - { offsetInCU: 0xD9BC, offset: 0x443B0, size: 0x8, addend: 0x0, symName: __ZNSt3__122__compressed_pair_elemIRNS_9allocatorIP4MeshEELi1ELb0EE5__getB7v160006Ev, symObjAddr: 0x4FBC, symBinAddr: 0x10002C7B4, symSize: 0x18 }
  - { offsetInCU: 0xD9E2, offset: 0x443D6, size: 0x8, addend: 0x0, symName: __ZNSt3__117__compressed_pairIPP4MeshRNS_9allocatorIS2_EEE5firstB7v160006Ev, symObjAddr: 0x4FD4, symBinAddr: 0x10002C7CC, symSize: 0x24 }
  - { offsetInCU: 0xDA08, offset: 0x443FC, size: 0x8, addend: 0x0, symName: __ZNKSt3__16vectorIP4MeshNS_9allocatorIS2_EEE17__annotate_deleteB7v160006Ev, symObjAddr: 0x4FF8, symBinAddr: 0x10002C7F0, symSize: 0xB8 }
  - { offsetInCU: 0xDA2E, offset: 0x44422, size: 0x8, addend: 0x0, symName: __ZNSt3__116reverse_iteratorIPP4MeshEC1B7v160006ES3_, symObjAddr: 0x5128, symBinAddr: 0x10002C920, symSize: 0x34 }
  - { offsetInCU: 0xDA66, offset: 0x4445A, size: 0x8, addend: 0x0, symName: __ZNKSt3__116reverse_iteratorIPP4MeshE4baseB7v160006Ev, symObjAddr: 0x515C, symBinAddr: 0x10002C954, symSize: 0x18 }
  - { offsetInCU: 0xDA8C, offset: 0x44480, size: 0x8, addend: 0x0, symName: __ZNKSt3__16vectorIP4MeshNS_9allocatorIS2_EEE14__annotate_newB7v160006Em, symObjAddr: 0x51B0, symBinAddr: 0x10002C9A8, symSize: 0xAC }
  - { offsetInCU: 0xDAC1, offset: 0x444B5, size: 0x8, addend: 0x0, symName: __ZNKSt3__16vectorIP4MeshNS_9allocatorIS2_EEE31__annotate_contiguous_containerB7v160006EPKvS7_S7_S7_, symObjAddr: 0x526C, symBinAddr: 0x10002CA64, symSize: 0x20 }
  - { offsetInCU: 0xDB13, offset: 0x44507, size: 0x8, addend: 0x0, symName: __ZNKSt3__16vectorIP4MeshNS_9allocatorIS2_EEE4dataB7v160006Ev, symObjAddr: 0x528C, symBinAddr: 0x10002CA84, symSize: 0x28 }
  - { offsetInCU: 0xDB5D, offset: 0x44551, size: 0x8, addend: 0x0, symName: __ZNKSt3__111__move_loopINS_17_ClassicAlgPolicyEEclB7v160006INS_16reverse_iteratorIPP4MeshEES8_S8_EENS_4pairIT_T1_EESA_T0_SB_, symObjAddr: 0x55A4, symBinAddr: 0x10002CD9C, symSize: 0xA0 }
  - { offsetInCU: 0xDBC8, offset: 0x445BC, size: 0x8, addend: 0x0, symName: __ZNSt3__18_IterOpsINS_17_ClassicAlgPolicyEE11__iter_moveB7v160006IRNS_16reverse_iteratorIPP4MeshEEEENS_9enable_ifIXsr12is_referenceIDTdeclsr3stdE7declvalIRT_EEEEE5valueEDTclsr3stdE4movedeclsr3stdE7declvalISC_EEEEE4typeEOSB_, symObjAddr: 0x57D8, symBinAddr: 0x10002CFD0, symSize: 0x28 }
  - { offsetInCU: 0xDBF4, offset: 0x445E8, size: 0x8, addend: 0x0, symName: __ZNKSt3__116reverse_iteratorIPP4MeshEdeB7v160006Ev, symObjAddr: 0x5800, symBinAddr: 0x10002CFF8, symSize: 0x28 }
  - { offsetInCU: 0xDC28, offset: 0x4461C, size: 0x8, addend: 0x0, symName: __ZNSt3__116reverse_iteratorIPP4MeshEppB7v160006Ev, symObjAddr: 0x5828, symBinAddr: 0x10002D020, symSize: 0x20 }
  - { offsetInCU: 0xDC4E, offset: 0x44642, size: 0x8, addend: 0x0, symName: __ZNSt3__18_IterOpsINS_17_ClassicAlgPolicyEE25__validate_iter_referenceB7v160006IRNS_16reverse_iteratorIPP4MeshEEEEvv, symObjAddr: 0x5848, symBinAddr: 0x10002D040, symSize: 0x4 }
  - { offsetInCU: 0xDC6C, offset: 0x44660, size: 0x8, addend: 0x0, symName: __ZNSt3__118__unwrap_iter_implINS_16reverse_iteratorIPP4MeshEELb0EE8__unwrapB7v160006ES5_, symObjAddr: 0x584C, symBinAddr: 0x10002D044, symSize: 0x24 }
  - { offsetInCU: 0xDC95, offset: 0x44689, size: 0x8, addend: 0x0, symName: __ZNSt3__14pairINS_16reverse_iteratorIPP4MeshEES5_EC1B7v160006IS5_S5_LPv0EEEOT_OT0_, symObjAddr: 0x5870, symBinAddr: 0x10002D068, symSize: 0x3C }
  - { offsetInCU: 0xDCF3, offset: 0x446E7, size: 0x8, addend: 0x0, symName: __ZNSt3__14pairINS_16reverse_iteratorIPP4MeshEES5_EC2B7v160006IS5_S5_LPv0EEEOT_OT0_, symObjAddr: 0x58AC, symBinAddr: 0x10002D0A4, symSize: 0x34 }
  - { offsetInCU: 0xDD51, offset: 0x44745, size: 0x8, addend: 0x0, symName: __ZNSt3__118__unwrap_iter_implINS_16reverse_iteratorIPP4MeshEELb0EE8__rewrapB7v160006ES5_S5_, symObjAddr: 0x58E0, symBinAddr: 0x10002D0D8, symSize: 0x2C }
  - { offsetInCU: 0xDD7F, offset: 0x44773, size: 0x8, addend: 0x0, symName: __ZNSt3__116reverse_iteratorIPP4MeshEC2B7v160006ES3_, symObjAddr: 0x590C, symBinAddr: 0x10002D104, symSize: 0x28 }
  - { offsetInCU: 0xDDB7, offset: 0x447AB, size: 0x8, addend: 0x0, symName: __ZNSt3__114__split_bufferIP4MeshRNS_9allocatorIS2_EEED2Ev, symObjAddr: 0x5934, symBinAddr: 0x10002D12C, symSize: 0x8C }
  - { offsetInCU: 0xDDE3, offset: 0x447D7, size: 0x8, addend: 0x0, symName: __ZNSt3__114__split_bufferIP4MeshRNS_9allocatorIS2_EEE5clearB7v160006Ev, symObjAddr: 0x59C0, symBinAddr: 0x10002D1B8, symSize: 0x28 }
  - { offsetInCU: 0xDE09, offset: 0x447FD, size: 0x8, addend: 0x0, symName: __ZNSt3__116allocator_traitsINS_9allocatorIP4MeshEEE10deallocateB7v160006ERS4_PS3_m, symObjAddr: 0x59E8, symBinAddr: 0x10002D1E0, symSize: 0x34 }
  - { offsetInCU: 0xDE4B, offset: 0x4483F, size: 0x8, addend: 0x0, symName: __ZNKSt3__114__split_bufferIP4MeshRNS_9allocatorIS2_EEE8capacityB7v160006Ev, symObjAddr: 0x5A1C, symBinAddr: 0x10002D214, symSize: 0x40 }
  - { offsetInCU: 0xDE71, offset: 0x44865, size: 0x8, addend: 0x0, symName: __ZNSt3__114__split_bufferIP4MeshRNS_9allocatorIS2_EEE17__destruct_at_endB7v160006EPS2_, symObjAddr: 0x5A5C, symBinAddr: 0x10002D254, symSize: 0x2C }
  - { offsetInCU: 0xDEA5, offset: 0x44899, size: 0x8, addend: 0x0, symName: __ZNSt3__114__split_bufferIP4MeshRNS_9allocatorIS2_EEE17__destruct_at_endB7v160006EPS2_NS_17integral_constantIbLb0EEE, symObjAddr: 0x5A88, symBinAddr: 0x10002D280, symSize: 0x80 }
  - { offsetInCU: 0xDEE6, offset: 0x448DA, size: 0x8, addend: 0x0, symName: __ZNSt3__116allocator_traitsINS_9allocatorIP4MeshEEE7destroyB7v160006IS3_vEEvRS4_PT_, symObjAddr: 0x5B08, symBinAddr: 0x10002D300, symSize: 0x2C }
  - { offsetInCU: 0xDF23, offset: 0x44917, size: 0x8, addend: 0x0, symName: __ZNSt3__19allocatorIP4MeshE7destroyB7v160006EPS2_, symObjAddr: 0x5B34, symBinAddr: 0x10002D32C, symSize: 0x14 }
  - { offsetInCU: 0xDF57, offset: 0x4494B, size: 0x8, addend: 0x0, symName: __ZNSt3__19allocatorIP4MeshE10deallocateB7v160006EPS2_m, symObjAddr: 0x5B48, symBinAddr: 0x10002D340, symSize: 0x40 }
  - { offsetInCU: 0xDF99, offset: 0x4498D, size: 0x8, addend: 0x0, symName: __ZNKSt3__114__split_bufferIP4MeshRNS_9allocatorIS2_EEE9__end_capB7v160006Ev, symObjAddr: 0x5C90, symBinAddr: 0x10002D380, symSize: 0x28 }
  - { offsetInCU: 0xDFBF, offset: 0x449B3, size: 0x8, addend: 0x0, symName: __ZNKSt3__117__compressed_pairIPP4MeshRNS_9allocatorIS2_EEE5firstB7v160006Ev, symObjAddr: 0x5CB8, symBinAddr: 0x10002D3A8, symSize: 0x24 }
  - { offsetInCU: 0xDFE5, offset: 0x449D9, size: 0x8, addend: 0x0, symName: __ZNSt3__16vectorIP11SceneObjectNS_9allocatorIS2_EEE9__end_capB7v160006Ev, symObjAddr: 0x5CDC, symBinAddr: 0x10002D3CC, symSize: 0x28 }
  - { offsetInCU: 0xE00B, offset: 0x449FF, size: 0x8, addend: 0x0, symName: __ZNSt3__16vectorIP11SceneObjectNS_9allocatorIS2_EEE22__construct_one_at_endB7v160006IJRKS2_EEEvDpOT_, symObjAddr: 0x5D04, symBinAddr: 0x10002D3F4, symSize: 0x90 }
  - { offsetInCU: 0xE05A, offset: 0x44A4E, size: 0x8, addend: 0x0, symName: __ZNSt3__16vectorIP11SceneObjectNS_9allocatorIS2_EEE21__push_back_slow_pathIRKS2_EEvOT_, symObjAddr: 0x5D94, symBinAddr: 0x10002D484, symSize: 0xD8 }
  - { offsetInCU: 0xE0B8, offset: 0x44AAC, size: 0x8, addend: 0x0, symName: __ZNSt3__117__compressed_pairIPP11SceneObjectNS_9allocatorIS2_EEE5firstB7v160006Ev, symObjAddr: 0x5E6C, symBinAddr: 0x10002D55C, symSize: 0x24 }
  - { offsetInCU: 0xE0DE, offset: 0x44AD2, size: 0x8, addend: 0x0, symName: __ZNSt3__122__compressed_pair_elemIPP11SceneObjectLi0ELb0EE5__getB7v160006Ev, symObjAddr: 0x5E90, symBinAddr: 0x10002D580, symSize: 0x14 }
  - { offsetInCU: 0xE11D, offset: 0x44B11, size: 0x8, addend: 0x0, symName: __ZNSt3__16vectorIP11SceneObjectNS_9allocatorIS2_EEE21_ConstructTransactionC1B7v160006ERS5_m, symObjAddr: 0x5EA4, symBinAddr: 0x10002D594, symSize: 0x3C }
  - { offsetInCU: 0xE165, offset: 0x44B59, size: 0x8, addend: 0x0, symName: __ZNSt3__116allocator_traitsINS_9allocatorIP11SceneObjectEEE9constructB7v160006IS3_JRKS3_EvEEvRS4_PT_DpOT0_, symObjAddr: 0x5EE0, symBinAddr: 0x10002D5D0, symSize: 0x34 }
  - { offsetInCU: 0xE1BC, offset: 0x44BB0, size: 0x8, addend: 0x0, symName: __ZNSt3__16vectorIP11SceneObjectNS_9allocatorIS2_EEE7__allocB7v160006Ev, symObjAddr: 0x5F14, symBinAddr: 0x10002D604, symSize: 0x28 }
  - { offsetInCU: 0xE1E2, offset: 0x44BD6, size: 0x8, addend: 0x0, symName: __ZNSt3__16vectorIP11SceneObjectNS_9allocatorIS2_EEE21_ConstructTransactionD1B7v160006Ev, symObjAddr: 0x5F50, symBinAddr: 0x10002D640, symSize: 0x2C }
  - { offsetInCU: 0xE20C, offset: 0x44C00, size: 0x8, addend: 0x0, symName: __ZNSt3__16vectorIP11SceneObjectNS_9allocatorIS2_EEE21_ConstructTransactionC2B7v160006ERS5_m, symObjAddr: 0x5F7C, symBinAddr: 0x10002D66C, symSize: 0x44 }
  - { offsetInCU: 0xE254, offset: 0x44C48, size: 0x8, addend: 0x0, symName: __ZNSt3__19allocatorIP11SceneObjectE9constructB7v160006IS2_JRKS2_EEEvPT_DpOT0_, symObjAddr: 0x5FC0, symBinAddr: 0x10002D6B0, symSize: 0x28 }
  - { offsetInCU: 0xE2AA, offset: 0x44C9E, size: 0x8, addend: 0x0, symName: __ZNSt3__117__compressed_pairIPP11SceneObjectNS_9allocatorIS2_EEE6secondB7v160006Ev, symObjAddr: 0x5FE8, symBinAddr: 0x10002D6D8, symSize: 0x24 }
  - { offsetInCU: 0xE2D0, offset: 0x44CC4, size: 0x8, addend: 0x0, symName: __ZNSt3__122__compressed_pair_elemINS_9allocatorIP11SceneObjectEELi1ELb1EE5__getB7v160006Ev, symObjAddr: 0x600C, symBinAddr: 0x10002D6FC, symSize: 0x14 }
  - { offsetInCU: 0xE2F6, offset: 0x44CEA, size: 0x8, addend: 0x0, symName: __ZNSt3__16vectorIP11SceneObjectNS_9allocatorIS2_EEE21_ConstructTransactionD2B7v160006Ev, symObjAddr: 0x6020, symBinAddr: 0x10002D710, symSize: 0x20 }
  - { offsetInCU: 0xE320, offset: 0x44D14, size: 0x8, addend: 0x0, symName: __ZNKSt3__16vectorIP11SceneObjectNS_9allocatorIS2_EEE11__recommendB7v160006Em, symObjAddr: 0x6040, symBinAddr: 0x10002D730, symSize: 0xB4 }
  - { offsetInCU: 0xE375, offset: 0x44D69, size: 0x8, addend: 0x0, symName: __ZNSt3__114__split_bufferIP11SceneObjectRNS_9allocatorIS2_EEEC1EmmS5_, symObjAddr: 0x60F4, symBinAddr: 0x10002D7E4, symSize: 0x44 }
  - { offsetInCU: 0xE3CB, offset: 0x44DBF, size: 0x8, addend: 0x0, symName: __ZNSt3__114__split_bufferIP11SceneObjectRNS_9allocatorIS2_EEED1Ev, symObjAddr: 0x6250, symBinAddr: 0x10002D940, symSize: 0x2C }
  - { offsetInCU: 0xE3F7, offset: 0x44DEB, size: 0x8, addend: 0x0, symName: __ZNKSt3__16vectorIP11SceneObjectNS_9allocatorIS2_EEE8max_sizeEv, symObjAddr: 0x627C, symBinAddr: 0x10002D96C, symSize: 0x60 }
  - { offsetInCU: 0xE41F, offset: 0x44E13, size: 0x8, addend: 0x0, symName: __ZNKSt3__16vectorIP11SceneObjectNS_9allocatorIS2_EEE20__throw_length_errorB7v160006Ev, symObjAddr: 0x62DC, symBinAddr: 0x10002D9CC, symSize: 0x1C }
  - { offsetInCU: 0xE445, offset: 0x44E39, size: 0x8, addend: 0x0, symName: __ZNKSt3__16vectorIP11SceneObjectNS_9allocatorIS2_EEE8capacityB7v160006Ev, symObjAddr: 0x62F8, symBinAddr: 0x10002D9E8, symSize: 0x40 }
  - { offsetInCU: 0xE475, offset: 0x44E69, size: 0x8, addend: 0x0, symName: __ZNSt3__116allocator_traitsINS_9allocatorIP11SceneObjectEEE8max_sizeB7v160006IS4_vEEmRKS4_, symObjAddr: 0x6338, symBinAddr: 0x10002DA28, symSize: 0x24 }
  - { offsetInCU: 0xE4A3, offset: 0x44E97, size: 0x8, addend: 0x0, symName: __ZNKSt3__16vectorIP11SceneObjectNS_9allocatorIS2_EEE7__allocB7v160006Ev, symObjAddr: 0x635C, symBinAddr: 0x10002DA4C, symSize: 0x28 }
  - { offsetInCU: 0xE4C9, offset: 0x44EBD, size: 0x8, addend: 0x0, symName: __ZNKSt3__19allocatorIP11SceneObjectE8max_sizeB7v160006Ev, symObjAddr: 0x6384, symBinAddr: 0x10002DA74, symSize: 0x14 }
  - { offsetInCU: 0xE4EF, offset: 0x44EE3, size: 0x8, addend: 0x0, symName: __ZNKSt3__117__compressed_pairIPP11SceneObjectNS_9allocatorIS2_EEE6secondB7v160006Ev, symObjAddr: 0x6398, symBinAddr: 0x10002DA88, symSize: 0x24 }
  - { offsetInCU: 0xE515, offset: 0x44F09, size: 0x8, addend: 0x0, symName: __ZNKSt3__122__compressed_pair_elemINS_9allocatorIP11SceneObjectEELi1ELb1EE5__getB7v160006Ev, symObjAddr: 0x63BC, symBinAddr: 0x10002DAAC, symSize: 0x14 }
  - { offsetInCU: 0xE53B, offset: 0x44F2F, size: 0x8, addend: 0x0, symName: __ZNKSt3__16vectorIP11SceneObjectNS_9allocatorIS2_EEE9__end_capB7v160006Ev, symObjAddr: 0x63D0, symBinAddr: 0x10002DAC0, symSize: 0x28 }
  - { offsetInCU: 0xE561, offset: 0x44F55, size: 0x8, addend: 0x0, symName: __ZNKSt3__117__compressed_pairIPP11SceneObjectNS_9allocatorIS2_EEE5firstB7v160006Ev, symObjAddr: 0x63F8, symBinAddr: 0x10002DAE8, symSize: 0x24 }
  - { offsetInCU: 0xE587, offset: 0x44F7B, size: 0x8, addend: 0x0, symName: __ZNKSt3__122__compressed_pair_elemIPP11SceneObjectLi0ELb0EE5__getB7v160006Ev, symObjAddr: 0x641C, symBinAddr: 0x10002DB0C, symSize: 0x14 }
  - { offsetInCU: 0xE5AD, offset: 0x44FA1, size: 0x8, addend: 0x0, symName: __ZNSt3__114__split_bufferIP11SceneObjectRNS_9allocatorIS2_EEEC2EmmS5_, symObjAddr: 0x6430, symBinAddr: 0x10002DB20, symSize: 0xD4 }
  - { offsetInCU: 0xE620, offset: 0x45014, size: 0x8, addend: 0x0, symName: __ZNSt3__117__compressed_pairIPP11SceneObjectRNS_9allocatorIS2_EEEC1B7v160006IDnS6_EEOT_OT0_, symObjAddr: 0x6504, symBinAddr: 0x10002DBF4, symSize: 0x3C }
  - { offsetInCU: 0xE678, offset: 0x4506C, size: 0x8, addend: 0x0, symName: __ZNSt3__114__split_bufferIP11SceneObjectRNS_9allocatorIS2_EEE7__allocB7v160006Ev, symObjAddr: 0x6580, symBinAddr: 0x10002DC70, symSize: 0x28 }
  - { offsetInCU: 0xE69E, offset: 0x45092, size: 0x8, addend: 0x0, symName: __ZNSt3__114__split_bufferIP11SceneObjectRNS_9allocatorIS2_EEE9__end_capB7v160006Ev, symObjAddr: 0x65A8, symBinAddr: 0x10002DC98, symSize: 0x28 }
  - { offsetInCU: 0xE6C4, offset: 0x450B8, size: 0x8, addend: 0x0, symName: __ZNSt3__117__compressed_pairIPP11SceneObjectRNS_9allocatorIS2_EEEC2B7v160006IDnS6_EEOT_OT0_, symObjAddr: 0x65D0, symBinAddr: 0x10002DCC0, symSize: 0x48 }
  - { offsetInCU: 0xE71C, offset: 0x45110, size: 0x8, addend: 0x0, symName: __ZNSt3__122__compressed_pair_elemIPP11SceneObjectLi0ELb0EEC2B7v160006IDnvEEOT_, symObjAddr: 0x6618, symBinAddr: 0x10002DD08, symSize: 0x1C }
  - { offsetInCU: 0xE75E, offset: 0x45152, size: 0x8, addend: 0x0, symName: __ZNSt3__122__compressed_pair_elemIRNS_9allocatorIP11SceneObjectEELi1ELb0EEC2B7v160006IS5_vEEOT_, symObjAddr: 0x6634, symBinAddr: 0x10002DD24, symSize: 0x20 }
  - { offsetInCU: 0xE7A0, offset: 0x45194, size: 0x8, addend: 0x0, symName: __ZNSt3__19allocatorIP11SceneObjectE8allocateB7v160006Em, symObjAddr: 0x6654, symBinAddr: 0x10002DD44, symSize: 0x58 }
  - { offsetInCU: 0xE7D4, offset: 0x451C8, size: 0x8, addend: 0x0, symName: __ZNSt3__117__compressed_pairIPP11SceneObjectRNS_9allocatorIS2_EEE6secondB7v160006Ev, symObjAddr: 0x66AC, symBinAddr: 0x10002DD9C, symSize: 0x28 }
  - { offsetInCU: 0xE7FA, offset: 0x451EE, size: 0x8, addend: 0x0, symName: __ZNSt3__122__compressed_pair_elemIRNS_9allocatorIP11SceneObjectEELi1ELb0EE5__getB7v160006Ev, symObjAddr: 0x66D4, symBinAddr: 0x10002DDC4, symSize: 0x18 }
  - { offsetInCU: 0xE820, offset: 0x45214, size: 0x8, addend: 0x0, symName: __ZNSt3__117__compressed_pairIPP11SceneObjectRNS_9allocatorIS2_EEE5firstB7v160006Ev, symObjAddr: 0x66EC, symBinAddr: 0x10002DDDC, symSize: 0x24 }
  - { offsetInCU: 0xE846, offset: 0x4523A, size: 0x8, addend: 0x0, symName: __ZNKSt3__16vectorIP11SceneObjectNS_9allocatorIS2_EEE17__annotate_deleteB7v160006Ev, symObjAddr: 0x6710, symBinAddr: 0x10002DE00, symSize: 0xB8 }
  - { offsetInCU: 0xE86C, offset: 0x45260, size: 0x8, addend: 0x0, symName: __ZNSt3__116reverse_iteratorIPP11SceneObjectEC1B7v160006ES3_, symObjAddr: 0x6840, symBinAddr: 0x10002DF30, symSize: 0x34 }
  - { offsetInCU: 0xE8A4, offset: 0x45298, size: 0x8, addend: 0x0, symName: __ZNKSt3__116reverse_iteratorIPP11SceneObjectE4baseB7v160006Ev, symObjAddr: 0x6874, symBinAddr: 0x10002DF64, symSize: 0x18 }
  - { offsetInCU: 0xE8CA, offset: 0x452BE, size: 0x8, addend: 0x0, symName: __ZNKSt3__16vectorIP11SceneObjectNS_9allocatorIS2_EEE14__annotate_newB7v160006Em, symObjAddr: 0x68C8, symBinAddr: 0x10002DFB8, symSize: 0xAC }
  - { offsetInCU: 0xE8FF, offset: 0x452F3, size: 0x8, addend: 0x0, symName: __ZNKSt3__16vectorIP11SceneObjectNS_9allocatorIS2_EEE31__annotate_contiguous_containerB7v160006EPKvS7_S7_S7_, symObjAddr: 0x6984, symBinAddr: 0x10002E074, symSize: 0x20 }
  - { offsetInCU: 0xE951, offset: 0x45345, size: 0x8, addend: 0x0, symName: __ZNKSt3__16vectorIP11SceneObjectNS_9allocatorIS2_EEE4dataB7v160006Ev, symObjAddr: 0x69A4, symBinAddr: 0x10002E094, symSize: 0x28 }
  - { offsetInCU: 0xE991, offset: 0x45385, size: 0x8, addend: 0x0, symName: __ZNKSt3__111__move_loopINS_17_ClassicAlgPolicyEEclB7v160006INS_16reverse_iteratorIPP11SceneObjectEES8_S8_EENS_4pairIT_T1_EESA_T0_SB_, symObjAddr: 0x6CBC, symBinAddr: 0x10002E3AC, symSize: 0xA0 }
  - { offsetInCU: 0xEA02, offset: 0x453F6, size: 0x8, addend: 0x0, symName: __ZNSt3__18_IterOpsINS_17_ClassicAlgPolicyEE11__iter_moveB7v160006IRNS_16reverse_iteratorIPP11SceneObjectEEEENS_9enable_ifIXsr12is_referenceIDTdeclsr3stdE7declvalIRT_EEEEE5valueEDTclsr3stdE4movedeclsr3stdE7declvalISC_EEEEE4typeEOSB_, symObjAddr: 0x6EF0, symBinAddr: 0x10002E5E0, symSize: 0x28 }
  - { offsetInCU: 0xEA2E, offset: 0x45422, size: 0x8, addend: 0x0, symName: __ZNKSt3__116reverse_iteratorIPP11SceneObjectEdeB7v160006Ev, symObjAddr: 0x6F18, symBinAddr: 0x10002E608, symSize: 0x28 }
  - { offsetInCU: 0xEA62, offset: 0x45456, size: 0x8, addend: 0x0, symName: __ZNSt3__116reverse_iteratorIPP11SceneObjectEppB7v160006Ev, symObjAddr: 0x6F40, symBinAddr: 0x10002E630, symSize: 0x20 }
  - { offsetInCU: 0xEA88, offset: 0x4547C, size: 0x8, addend: 0x0, symName: __ZNSt3__18_IterOpsINS_17_ClassicAlgPolicyEE25__validate_iter_referenceB7v160006IRNS_16reverse_iteratorIPP11SceneObjectEEEEvv, symObjAddr: 0x6F60, symBinAddr: 0x10002E650, symSize: 0x4 }
  - { offsetInCU: 0xEAA6, offset: 0x4549A, size: 0x8, addend: 0x0, symName: __ZNSt3__118__unwrap_iter_implINS_16reverse_iteratorIPP11SceneObjectEELb0EE8__unwrapB7v160006ES5_, symObjAddr: 0x6F64, symBinAddr: 0x10002E654, symSize: 0x24 }
  - { offsetInCU: 0xEACF, offset: 0x454C3, size: 0x8, addend: 0x0, symName: __ZNSt3__14pairINS_16reverse_iteratorIPP11SceneObjectEES5_EC1B7v160006IS5_S5_LPv0EEEOT_OT0_, symObjAddr: 0x6F88, symBinAddr: 0x10002E678, symSize: 0x3C }
  - { offsetInCU: 0xEB2D, offset: 0x45521, size: 0x8, addend: 0x0, symName: __ZNSt3__14pairINS_16reverse_iteratorIPP11SceneObjectEES5_EC2B7v160006IS5_S5_LPv0EEEOT_OT0_, symObjAddr: 0x6FC4, symBinAddr: 0x10002E6B4, symSize: 0x34 }
  - { offsetInCU: 0xEB8B, offset: 0x4557F, size: 0x8, addend: 0x0, symName: __ZNSt3__118__unwrap_iter_implINS_16reverse_iteratorIPP11SceneObjectEELb0EE8__rewrapB7v160006ES5_S5_, symObjAddr: 0x6FF8, symBinAddr: 0x10002E6E8, symSize: 0x2C }
  - { offsetInCU: 0xEBB9, offset: 0x455AD, size: 0x8, addend: 0x0, symName: __ZNSt3__116reverse_iteratorIPP11SceneObjectEC2B7v160006ES3_, symObjAddr: 0x7024, symBinAddr: 0x10002E714, symSize: 0x28 }
  - { offsetInCU: 0xEBF1, offset: 0x455E5, size: 0x8, addend: 0x0, symName: __ZNSt3__114__split_bufferIP11SceneObjectRNS_9allocatorIS2_EEED2Ev, symObjAddr: 0x704C, symBinAddr: 0x10002E73C, symSize: 0x8C }
  - { offsetInCU: 0xEC1D, offset: 0x45611, size: 0x8, addend: 0x0, symName: __ZNSt3__114__split_bufferIP11SceneObjectRNS_9allocatorIS2_EEE5clearB7v160006Ev, symObjAddr: 0x70D8, symBinAddr: 0x10002E7C8, symSize: 0x28 }
  - { offsetInCU: 0xEC43, offset: 0x45637, size: 0x8, addend: 0x0, symName: __ZNSt3__116allocator_traitsINS_9allocatorIP11SceneObjectEEE10deallocateB7v160006ERS4_PS3_m, symObjAddr: 0x7100, symBinAddr: 0x10002E7F0, symSize: 0x34 }
  - { offsetInCU: 0xEC85, offset: 0x45679, size: 0x8, addend: 0x0, symName: __ZNKSt3__114__split_bufferIP11SceneObjectRNS_9allocatorIS2_EEE8capacityB7v160006Ev, symObjAddr: 0x7134, symBinAddr: 0x10002E824, symSize: 0x40 }
  - { offsetInCU: 0xECAB, offset: 0x4569F, size: 0x8, addend: 0x0, symName: __ZNSt3__114__split_bufferIP11SceneObjectRNS_9allocatorIS2_EEE17__destruct_at_endB7v160006EPS2_, symObjAddr: 0x7174, symBinAddr: 0x10002E864, symSize: 0x2C }
  - { offsetInCU: 0xECDF, offset: 0x456D3, size: 0x8, addend: 0x0, symName: __ZNSt3__114__split_bufferIP11SceneObjectRNS_9allocatorIS2_EEE17__destruct_at_endB7v160006EPS2_NS_17integral_constantIbLb0EEE, symObjAddr: 0x71A0, symBinAddr: 0x10002E890, symSize: 0x80 }
  - { offsetInCU: 0xED20, offset: 0x45714, size: 0x8, addend: 0x0, symName: __ZNSt3__116allocator_traitsINS_9allocatorIP11SceneObjectEEE7destroyB7v160006IS3_vEEvRS4_PT_, symObjAddr: 0x7220, symBinAddr: 0x10002E910, symSize: 0x2C }
  - { offsetInCU: 0xED5D, offset: 0x45751, size: 0x8, addend: 0x0, symName: __ZNSt3__19allocatorIP11SceneObjectE7destroyB7v160006EPS2_, symObjAddr: 0x724C, symBinAddr: 0x10002E93C, symSize: 0x14 }
  - { offsetInCU: 0xED91, offset: 0x45785, size: 0x8, addend: 0x0, symName: __ZNSt3__19allocatorIP11SceneObjectE10deallocateB7v160006EPS2_m, symObjAddr: 0x7260, symBinAddr: 0x10002E950, symSize: 0x40 }
  - { offsetInCU: 0xEDD3, offset: 0x457C7, size: 0x8, addend: 0x0, symName: __ZNKSt3__114__split_bufferIP11SceneObjectRNS_9allocatorIS2_EEE9__end_capB7v160006Ev, symObjAddr: 0x72A0, symBinAddr: 0x10002E990, symSize: 0x28 }
  - { offsetInCU: 0xEDF9, offset: 0x457ED, size: 0x8, addend: 0x0, symName: __ZNKSt3__117__compressed_pairIPP11SceneObjectRNS_9allocatorIS2_EEE5firstB7v160006Ev, symObjAddr: 0x72C8, symBinAddr: 0x10002E9B8, symSize: 0x24 }
  - { offsetInCU: 0xEE1F, offset: 0x45813, size: 0x8, addend: 0x0, symName: __ZNSt3__16vectorIP11SceneObjectNS_9allocatorIS2_EEEC2B7v160006Ev, symObjAddr: 0x72EC, symBinAddr: 0x10002E9DC, symSize: 0x58 }
  - { offsetInCU: 0xEE49, offset: 0x4583D, size: 0x8, addend: 0x0, symName: __ZNSt3__117__compressed_pairIPP11SceneObjectNS_9allocatorIS2_EEEC1B7v160006IDnNS_18__default_init_tagEEEOT_OT0_, symObjAddr: 0x7344, symBinAddr: 0x10002EA34, symSize: 0x3C }
  - { offsetInCU: 0xEEA1, offset: 0x45895, size: 0x8, addend: 0x0, symName: __ZNSt3__117__compressed_pairIPP11SceneObjectNS_9allocatorIS2_EEEC2B7v160006IDnNS_18__default_init_tagEEEOT_OT0_, symObjAddr: 0x7390, symBinAddr: 0x10002EA80, symSize: 0x40 }
  - { offsetInCU: 0xEEF9, offset: 0x458ED, size: 0x8, addend: 0x0, symName: __ZNSt3__122__compressed_pair_elemINS_9allocatorIP11SceneObjectEELi1ELb1EEC2B7v160006ENS_18__default_init_tagE, symObjAddr: 0x73D0, symBinAddr: 0x10002EAC0, symSize: 0x2C }
  - { offsetInCU: 0xEF2E, offset: 0x45922, size: 0x8, addend: 0x0, symName: __ZNSt3__19allocatorIP11SceneObjectEC2B7v160006Ev, symObjAddr: 0x73FC, symBinAddr: 0x10002EAEC, symSize: 0x2C }
  - { offsetInCU: 0xEF58, offset: 0x4594C, size: 0x8, addend: 0x0, symName: __ZNSt3__116__non_trivial_ifILb1ENS_9allocatorIP11SceneObjectEEEC2B7v160006Ev, symObjAddr: 0x7428, symBinAddr: 0x10002EB18, symSize: 0x14 }
  - { offsetInCU: 0xEF82, offset: 0x45976, size: 0x8, addend: 0x0, symName: __ZNSt3__16vectorIP11SceneObjectNS_9allocatorIS2_EEED2B7v160006Ev, symObjAddr: 0x743C, symBinAddr: 0x10002EB2C, symSize: 0x44 }
  - { offsetInCU: 0xEFAC, offset: 0x459A0, size: 0x8, addend: 0x0, symName: __ZNSt3__16vectorIP11SceneObjectNS_9allocatorIS2_EEE16__destroy_vectorC1ERS5_, symObjAddr: 0x7480, symBinAddr: 0x10002EB70, symSize: 0x34 }
  - { offsetInCU: 0xEFE5, offset: 0x459D9, size: 0x8, addend: 0x0, symName: __ZNSt3__16vectorIP11SceneObjectNS_9allocatorIS2_EEE16__destroy_vectorclB7v160006Ev, symObjAddr: 0x74B4, symBinAddr: 0x10002EBA4, symSize: 0x9C }
  - { offsetInCU: 0xF00B, offset: 0x459FF, size: 0x8, addend: 0x0, symName: __ZNSt3__16vectorIP11SceneObjectNS_9allocatorIS2_EEE16__destroy_vectorC2ERS5_, symObjAddr: 0x7550, symBinAddr: 0x10002EC40, symSize: 0x20 }
  - { offsetInCU: 0xF044, offset: 0x45A38, size: 0x8, addend: 0x0, symName: __ZNSt3__16vectorIP11SceneObjectNS_9allocatorIS2_EEE7__clearB7v160006Ev, symObjAddr: 0x7580, symBinAddr: 0x10002EC70, symSize: 0x28 }
  - { offsetInCU: 0xF06A, offset: 0x45A5E, size: 0x8, addend: 0x0, symName: __ZNSt3__16vectorIP11SceneObjectNS_9allocatorIS2_EEE22__base_destruct_at_endB7v160006EPS2_, symObjAddr: 0x75A8, symBinAddr: 0x10002EC98, symSize: 0x8C }
  - { offsetInCU: 0xF0AE, offset: 0x45AA2, size: 0x8, addend: 0x0, symName: __ZNSt3__16vectorIP4MeshNS_9allocatorIS2_EEEC2B7v160006Ev, symObjAddr: 0x7634, symBinAddr: 0x10002ED24, symSize: 0x58 }
  - { offsetInCU: 0xF0D8, offset: 0x45ACC, size: 0x8, addend: 0x0, symName: __ZNSt3__117__compressed_pairIPP4MeshNS_9allocatorIS2_EEEC1B7v160006IDnNS_18__default_init_tagEEEOT_OT0_, symObjAddr: 0x768C, symBinAddr: 0x10002ED7C, symSize: 0x3C }
  - { offsetInCU: 0xF130, offset: 0x45B24, size: 0x8, addend: 0x0, symName: __ZNSt3__117__compressed_pairIPP4MeshNS_9allocatorIS2_EEEC2B7v160006IDnNS_18__default_init_tagEEEOT_OT0_, symObjAddr: 0x76D8, symBinAddr: 0x10002EDC8, symSize: 0x40 }
  - { offsetInCU: 0xF188, offset: 0x45B7C, size: 0x8, addend: 0x0, symName: __ZNSt3__122__compressed_pair_elemINS_9allocatorIP4MeshEELi1ELb1EEC2B7v160006ENS_18__default_init_tagE, symObjAddr: 0x7718, symBinAddr: 0x10002EE08, symSize: 0x2C }
  - { offsetInCU: 0xF1BD, offset: 0x45BB1, size: 0x8, addend: 0x0, symName: __ZNSt3__19allocatorIP4MeshEC2B7v160006Ev, symObjAddr: 0x7744, symBinAddr: 0x10002EE34, symSize: 0x2C }
  - { offsetInCU: 0xF1E7, offset: 0x45BDB, size: 0x8, addend: 0x0, symName: __ZNSt3__116__non_trivial_ifILb1ENS_9allocatorIP4MeshEEEC2B7v160006Ev, symObjAddr: 0x7770, symBinAddr: 0x10002EE60, symSize: 0x14 }
  - { offsetInCU: 0xF211, offset: 0x45C05, size: 0x8, addend: 0x0, symName: __ZNSt3__16vectorIP4MeshNS_9allocatorIS2_EEED2B7v160006Ev, symObjAddr: 0x7784, symBinAddr: 0x10002EE74, symSize: 0x44 }
  - { offsetInCU: 0xF23B, offset: 0x45C2F, size: 0x8, addend: 0x0, symName: __ZNSt3__16vectorIP4MeshNS_9allocatorIS2_EEE16__destroy_vectorC1ERS5_, symObjAddr: 0x77C8, symBinAddr: 0x10002EEB8, symSize: 0x34 }
  - { offsetInCU: 0xF274, offset: 0x45C68, size: 0x8, addend: 0x0, symName: __ZNSt3__16vectorIP4MeshNS_9allocatorIS2_EEE16__destroy_vectorclB7v160006Ev, symObjAddr: 0x77FC, symBinAddr: 0x10002EEEC, symSize: 0x9C }
  - { offsetInCU: 0xF29A, offset: 0x45C8E, size: 0x8, addend: 0x0, symName: __ZNSt3__16vectorIP4MeshNS_9allocatorIS2_EEE16__destroy_vectorC2ERS5_, symObjAddr: 0x7898, symBinAddr: 0x10002EF88, symSize: 0x20 }
  - { offsetInCU: 0xF2D3, offset: 0x45CC7, size: 0x8, addend: 0x0, symName: __ZNSt3__16vectorIP4MeshNS_9allocatorIS2_EEE7__clearB7v160006Ev, symObjAddr: 0x78C8, symBinAddr: 0x10002EFB8, symSize: 0x28 }
  - { offsetInCU: 0xF2F9, offset: 0x45CED, size: 0x8, addend: 0x0, symName: __ZNSt3__16vectorIP4MeshNS_9allocatorIS2_EEE22__base_destruct_at_endB7v160006EPS2_, symObjAddr: 0x78F0, symBinAddr: 0x10002EFE0, symSize: 0x8C }
  - { offsetInCU: 0xF33D, offset: 0x45D31, size: 0x8, addend: 0x0, symName: __ZNSt3__16vectorIP6ShaderNS_9allocatorIS2_EEEC2B7v160006Ev, symObjAddr: 0x797C, symBinAddr: 0x10002F06C, symSize: 0x58 }
  - { offsetInCU: 0xF367, offset: 0x45D5B, size: 0x8, addend: 0x0, symName: __ZNSt3__117__compressed_pairIPP6ShaderNS_9allocatorIS2_EEEC1B7v160006IDnNS_18__default_init_tagEEEOT_OT0_, symObjAddr: 0x79D4, symBinAddr: 0x10002F0C4, symSize: 0x3C }
  - { offsetInCU: 0xF3BF, offset: 0x45DB3, size: 0x8, addend: 0x0, symName: __ZNSt3__117__compressed_pairIPP6ShaderNS_9allocatorIS2_EEEC2B7v160006IDnNS_18__default_init_tagEEEOT_OT0_, symObjAddr: 0x7A20, symBinAddr: 0x10002F110, symSize: 0x40 }
  - { offsetInCU: 0xF417, offset: 0x45E0B, size: 0x8, addend: 0x0, symName: __ZNSt3__122__compressed_pair_elemIPP6ShaderLi0ELb0EEC2B7v160006IDnvEEOT_, symObjAddr: 0x7A60, symBinAddr: 0x10002F150, symSize: 0x1C }
  - { offsetInCU: 0xF459, offset: 0x45E4D, size: 0x8, addend: 0x0, symName: __ZNSt3__122__compressed_pair_elemINS_9allocatorIP6ShaderEELi1ELb1EEC2B7v160006ENS_18__default_init_tagE, symObjAddr: 0x7A7C, symBinAddr: 0x10002F16C, symSize: 0x2C }
  - { offsetInCU: 0xF48E, offset: 0x45E82, size: 0x8, addend: 0x0, symName: __ZNSt3__19allocatorIP6ShaderEC2B7v160006Ev, symObjAddr: 0x7AA8, symBinAddr: 0x10002F198, symSize: 0x2C }
  - { offsetInCU: 0xF4B8, offset: 0x45EAC, size: 0x8, addend: 0x0, symName: __ZNSt3__116__non_trivial_ifILb1ENS_9allocatorIP6ShaderEEEC2B7v160006Ev, symObjAddr: 0x7AD4, symBinAddr: 0x10002F1C4, symSize: 0x14 }
  - { offsetInCU: 0xF4E2, offset: 0x45ED6, size: 0x8, addend: 0x0, symName: __ZNSt3__16vectorIP6ShaderNS_9allocatorIS2_EEED2B7v160006Ev, symObjAddr: 0x7AE8, symBinAddr: 0x10002F1D8, symSize: 0x44 }
  - { offsetInCU: 0xF50C, offset: 0x45F00, size: 0x8, addend: 0x0, symName: __ZNSt3__16vectorIP6ShaderNS_9allocatorIS2_EEE16__destroy_vectorC1ERS5_, symObjAddr: 0x7B2C, symBinAddr: 0x10002F21C, symSize: 0x34 }
  - { offsetInCU: 0xF545, offset: 0x45F39, size: 0x8, addend: 0x0, symName: __ZNSt3__16vectorIP6ShaderNS_9allocatorIS2_EEE16__destroy_vectorclB7v160006Ev, symObjAddr: 0x7B60, symBinAddr: 0x10002F250, symSize: 0x9C }
  - { offsetInCU: 0xF56B, offset: 0x45F5F, size: 0x8, addend: 0x0, symName: __ZNSt3__16vectorIP6ShaderNS_9allocatorIS2_EEE16__destroy_vectorC2ERS5_, symObjAddr: 0x7BFC, symBinAddr: 0x10002F2EC, symSize: 0x20 }
  - { offsetInCU: 0xF5A4, offset: 0x45F98, size: 0x8, addend: 0x0, symName: __ZNKSt3__16vectorIP6ShaderNS_9allocatorIS2_EEE17__annotate_deleteB7v160006Ev, symObjAddr: 0x7C1C, symBinAddr: 0x10002F30C, symSize: 0xB8 }
  - { offsetInCU: 0xF5CA, offset: 0x45FBE, size: 0x8, addend: 0x0, symName: __ZNSt3__16vectorIP6ShaderNS_9allocatorIS2_EEE7__clearB7v160006Ev, symObjAddr: 0x7CE4, symBinAddr: 0x10002F3D4, symSize: 0x28 }
  - { offsetInCU: 0xF5F0, offset: 0x45FE4, size: 0x8, addend: 0x0, symName: __ZNSt3__116allocator_traitsINS_9allocatorIP6ShaderEEE10deallocateB7v160006ERS4_PS3_m, symObjAddr: 0x7D0C, symBinAddr: 0x10002F3FC, symSize: 0x34 }
  - { offsetInCU: 0xF632, offset: 0x46026, size: 0x8, addend: 0x0, symName: __ZNSt3__16vectorIP6ShaderNS_9allocatorIS2_EEE7__allocB7v160006Ev, symObjAddr: 0x7D40, symBinAddr: 0x10002F430, symSize: 0x28 }
  - { offsetInCU: 0xF658, offset: 0x4604C, size: 0x8, addend: 0x0, symName: __ZNKSt3__16vectorIP6ShaderNS_9allocatorIS2_EEE8capacityB7v160006Ev, symObjAddr: 0x7D68, symBinAddr: 0x10002F458, symSize: 0x40 }
  - { offsetInCU: 0xF67E, offset: 0x46072, size: 0x8, addend: 0x0, symName: __ZNKSt3__16vectorIP6ShaderNS_9allocatorIS2_EEE31__annotate_contiguous_containerB7v160006EPKvS7_S7_S7_, symObjAddr: 0x7DA8, symBinAddr: 0x10002F498, symSize: 0x20 }
  - { offsetInCU: 0xF6D0, offset: 0x460C4, size: 0x8, addend: 0x0, symName: __ZNKSt3__16vectorIP6ShaderNS_9allocatorIS2_EEE4dataB7v160006Ev, symObjAddr: 0x7DC8, symBinAddr: 0x10002F4B8, symSize: 0x28 }
  - { offsetInCU: 0xF6F6, offset: 0x460EA, size: 0x8, addend: 0x0, symName: __ZNKSt3__16vectorIP6ShaderNS_9allocatorIS2_EEE4sizeB7v160006Ev, symObjAddr: 0x7DF0, symBinAddr: 0x10002F4E0, symSize: 0x28 }
  - { offsetInCU: 0xF71C, offset: 0x46110, size: 0x8, addend: 0x0, symName: __ZNSt3__16vectorIP6ShaderNS_9allocatorIS2_EEE22__base_destruct_at_endB7v160006EPS2_, symObjAddr: 0x7E2C, symBinAddr: 0x10002F51C, symSize: 0x8C }
  - { offsetInCU: 0xF760, offset: 0x46154, size: 0x8, addend: 0x0, symName: __ZNSt3__116allocator_traitsINS_9allocatorIP6ShaderEEE7destroyB7v160006IS3_vEEvRS4_PT_, symObjAddr: 0x7EB8, symBinAddr: 0x10002F5A8, symSize: 0x2C }
  - { offsetInCU: 0xF79D, offset: 0x46191, size: 0x8, addend: 0x0, symName: __ZNSt3__19allocatorIP6ShaderE7destroyB7v160006EPS2_, symObjAddr: 0x7EE4, symBinAddr: 0x10002F5D4, symSize: 0x14 }
  - { offsetInCU: 0xF7D1, offset: 0x461C5, size: 0x8, addend: 0x0, symName: __ZNSt3__19allocatorIP6ShaderE10deallocateB7v160006EPS2_m, symObjAddr: 0x7EF8, symBinAddr: 0x10002F5E8, symSize: 0x40 }
  - { offsetInCU: 0xF813, offset: 0x46207, size: 0x8, addend: 0x0, symName: __ZNSt3__117__compressed_pairIPP6ShaderNS_9allocatorIS2_EEE6secondB7v160006Ev, symObjAddr: 0x7F38, symBinAddr: 0x10002F628, symSize: 0x24 }
  - { offsetInCU: 0xF839, offset: 0x4622D, size: 0x8, addend: 0x0, symName: __ZNSt3__122__compressed_pair_elemINS_9allocatorIP6ShaderEELi1ELb1EE5__getB7v160006Ev, symObjAddr: 0x7F5C, symBinAddr: 0x10002F64C, symSize: 0x14 }
  - { offsetInCU: 0xF85F, offset: 0x46253, size: 0x8, addend: 0x0, symName: __ZNKSt3__16vectorIP6ShaderNS_9allocatorIS2_EEE9__end_capB7v160006Ev, symObjAddr: 0x7F70, symBinAddr: 0x10002F660, symSize: 0x28 }
  - { offsetInCU: 0xF885, offset: 0x46279, size: 0x8, addend: 0x0, symName: __ZNKSt3__117__compressed_pairIPP6ShaderNS_9allocatorIS2_EEE5firstB7v160006Ev, symObjAddr: 0x7F98, symBinAddr: 0x10002F688, symSize: 0x24 }
  - { offsetInCU: 0xF8AB, offset: 0x4629F, size: 0x8, addend: 0x0, symName: __ZNKSt3__122__compressed_pair_elemIPP6ShaderLi0ELb0EE5__getB7v160006Ev, symObjAddr: 0x7FBC, symBinAddr: 0x10002F6AC, symSize: 0x14 }
  - { offsetInCU: 0xF8D1, offset: 0x462C5, size: 0x8, addend: 0x0, symName: __ZNSt3__16vectorIP6ShaderNS_9allocatorIS2_EEE9__end_capB7v160006Ev, symObjAddr: 0x7FD0, symBinAddr: 0x10002F6C0, symSize: 0x28 }
  - { offsetInCU: 0xF8F7, offset: 0x462EB, size: 0x8, addend: 0x0, symName: __ZNSt3__16vectorIP6ShaderNS_9allocatorIS2_EEE22__construct_one_at_endB7v160006IJRKS2_EEEvDpOT_, symObjAddr: 0x7FF8, symBinAddr: 0x10002F6E8, symSize: 0x90 }
  - { offsetInCU: 0xF946, offset: 0x4633A, size: 0x8, addend: 0x0, symName: __ZNSt3__16vectorIP6ShaderNS_9allocatorIS2_EEE21__push_back_slow_pathIRKS2_EEvOT_, symObjAddr: 0x8088, symBinAddr: 0x10002F778, symSize: 0xD8 }
  - { offsetInCU: 0xF9A4, offset: 0x46398, size: 0x8, addend: 0x0, symName: __ZNSt3__117__compressed_pairIPP6ShaderNS_9allocatorIS2_EEE5firstB7v160006Ev, symObjAddr: 0x8160, symBinAddr: 0x10002F850, symSize: 0x24 }
  - { offsetInCU: 0xF9CA, offset: 0x463BE, size: 0x8, addend: 0x0, symName: __ZNSt3__122__compressed_pair_elemIPP6ShaderLi0ELb0EE5__getB7v160006Ev, symObjAddr: 0x8184, symBinAddr: 0x10002F874, symSize: 0x14 }
  - { offsetInCU: 0xFA09, offset: 0x463FD, size: 0x8, addend: 0x0, symName: __ZNSt3__16vectorIP6ShaderNS_9allocatorIS2_EEE21_ConstructTransactionC1B7v160006ERS5_m, symObjAddr: 0x8198, symBinAddr: 0x10002F888, symSize: 0x3C }
  - { offsetInCU: 0xFA51, offset: 0x46445, size: 0x8, addend: 0x0, symName: __ZNSt3__116allocator_traitsINS_9allocatorIP6ShaderEEE9constructB7v160006IS3_JRKS3_EvEEvRS4_PT_DpOT0_, symObjAddr: 0x81D4, symBinAddr: 0x10002F8C4, symSize: 0x34 }
  - { offsetInCU: 0xFAA8, offset: 0x4649C, size: 0x8, addend: 0x0, symName: __ZNSt3__16vectorIP6ShaderNS_9allocatorIS2_EEE21_ConstructTransactionD1B7v160006Ev, symObjAddr: 0x8208, symBinAddr: 0x10002F8F8, symSize: 0x2C }
  - { offsetInCU: 0xFAD2, offset: 0x464C6, size: 0x8, addend: 0x0, symName: __ZNSt3__16vectorIP6ShaderNS_9allocatorIS2_EEE21_ConstructTransactionC2B7v160006ERS5_m, symObjAddr: 0x8234, symBinAddr: 0x10002F924, symSize: 0x44 }
  - { offsetInCU: 0xFB1A, offset: 0x4650E, size: 0x8, addend: 0x0, symName: __ZNSt3__19allocatorIP6ShaderE9constructB7v160006IS2_JRKS2_EEEvPT_DpOT0_, symObjAddr: 0x8278, symBinAddr: 0x10002F968, symSize: 0x28 }
  - { offsetInCU: 0xFB70, offset: 0x46564, size: 0x8, addend: 0x0, symName: __ZNSt3__16vectorIP6ShaderNS_9allocatorIS2_EEE21_ConstructTransactionD2B7v160006Ev, symObjAddr: 0x82A0, symBinAddr: 0x10002F990, symSize: 0x20 }
  - { offsetInCU: 0xFB9A, offset: 0x4658E, size: 0x8, addend: 0x0, symName: __ZNKSt3__16vectorIP6ShaderNS_9allocatorIS2_EEE11__recommendB7v160006Em, symObjAddr: 0x82C0, symBinAddr: 0x10002F9B0, symSize: 0xB4 }
  - { offsetInCU: 0xFBEF, offset: 0x465E3, size: 0x8, addend: 0x0, symName: __ZNSt3__114__split_bufferIP6ShaderRNS_9allocatorIS2_EEEC1EmmS5_, symObjAddr: 0x8374, symBinAddr: 0x10002FA64, symSize: 0x44 }
  - { offsetInCU: 0xFC45, offset: 0x46639, size: 0x8, addend: 0x0, symName: __ZNSt3__114__split_bufferIP6ShaderRNS_9allocatorIS2_EEED1Ev, symObjAddr: 0x84D0, symBinAddr: 0x10002FBC0, symSize: 0x2C }
  - { offsetInCU: 0xFC71, offset: 0x46665, size: 0x8, addend: 0x0, symName: __ZNKSt3__16vectorIP6ShaderNS_9allocatorIS2_EEE8max_sizeEv, symObjAddr: 0x84FC, symBinAddr: 0x10002FBEC, symSize: 0x60 }
  - { offsetInCU: 0xFC99, offset: 0x4668D, size: 0x8, addend: 0x0, symName: __ZNKSt3__16vectorIP6ShaderNS_9allocatorIS2_EEE20__throw_length_errorB7v160006Ev, symObjAddr: 0x855C, symBinAddr: 0x10002FC4C, symSize: 0x1C }
  - { offsetInCU: 0xFCC9, offset: 0x466BD, size: 0x8, addend: 0x0, symName: __ZNSt3__116allocator_traitsINS_9allocatorIP6ShaderEEE8max_sizeB7v160006IS4_vEEmRKS4_, symObjAddr: 0x8578, symBinAddr: 0x10002FC68, symSize: 0x24 }
  - { offsetInCU: 0xFCF7, offset: 0x466EB, size: 0x8, addend: 0x0, symName: __ZNKSt3__16vectorIP6ShaderNS_9allocatorIS2_EEE7__allocB7v160006Ev, symObjAddr: 0x859C, symBinAddr: 0x10002FC8C, symSize: 0x28 }
  - { offsetInCU: 0xFD1D, offset: 0x46711, size: 0x8, addend: 0x0, symName: __ZNKSt3__19allocatorIP6ShaderE8max_sizeB7v160006Ev, symObjAddr: 0x85C4, symBinAddr: 0x10002FCB4, symSize: 0x14 }
  - { offsetInCU: 0xFD43, offset: 0x46737, size: 0x8, addend: 0x0, symName: __ZNKSt3__117__compressed_pairIPP6ShaderNS_9allocatorIS2_EEE6secondB7v160006Ev, symObjAddr: 0x85D8, symBinAddr: 0x10002FCC8, symSize: 0x24 }
  - { offsetInCU: 0xFD69, offset: 0x4675D, size: 0x8, addend: 0x0, symName: __ZNKSt3__122__compressed_pair_elemINS_9allocatorIP6ShaderEELi1ELb1EE5__getB7v160006Ev, symObjAddr: 0x85FC, symBinAddr: 0x10002FCEC, symSize: 0x14 }
  - { offsetInCU: 0xFD8F, offset: 0x46783, size: 0x8, addend: 0x0, symName: __ZNSt3__114__split_bufferIP6ShaderRNS_9allocatorIS2_EEEC2EmmS5_, symObjAddr: 0x8610, symBinAddr: 0x10002FD00, symSize: 0xD4 }
  - { offsetInCU: 0xFE02, offset: 0x467F6, size: 0x8, addend: 0x0, symName: __ZNSt3__117__compressed_pairIPP6ShaderRNS_9allocatorIS2_EEEC1B7v160006IDnS6_EEOT_OT0_, symObjAddr: 0x86E4, symBinAddr: 0x10002FDD4, symSize: 0x3C }
  - { offsetInCU: 0xFE5A, offset: 0x4684E, size: 0x8, addend: 0x0, symName: __ZNSt3__114__split_bufferIP6ShaderRNS_9allocatorIS2_EEE7__allocB7v160006Ev, symObjAddr: 0x8760, symBinAddr: 0x10002FE50, symSize: 0x28 }
  - { offsetInCU: 0xFE80, offset: 0x46874, size: 0x8, addend: 0x0, symName: __ZNSt3__114__split_bufferIP6ShaderRNS_9allocatorIS2_EEE9__end_capB7v160006Ev, symObjAddr: 0x8788, symBinAddr: 0x10002FE78, symSize: 0x28 }
  - { offsetInCU: 0xFEA6, offset: 0x4689A, size: 0x8, addend: 0x0, symName: __ZNSt3__117__compressed_pairIPP6ShaderRNS_9allocatorIS2_EEEC2B7v160006IDnS6_EEOT_OT0_, symObjAddr: 0x87B0, symBinAddr: 0x10002FEA0, symSize: 0x48 }
  - { offsetInCU: 0xFEFE, offset: 0x468F2, size: 0x8, addend: 0x0, symName: __ZNSt3__122__compressed_pair_elemIRNS_9allocatorIP6ShaderEELi1ELb0EEC2B7v160006IS5_vEEOT_, symObjAddr: 0x87F8, symBinAddr: 0x10002FEE8, symSize: 0x20 }
  - { offsetInCU: 0xFF40, offset: 0x46934, size: 0x8, addend: 0x0, symName: __ZNSt3__19allocatorIP6ShaderE8allocateB7v160006Em, symObjAddr: 0x8818, symBinAddr: 0x10002FF08, symSize: 0x58 }
  - { offsetInCU: 0xFF74, offset: 0x46968, size: 0x8, addend: 0x0, symName: __ZNSt3__117__compressed_pairIPP6ShaderRNS_9allocatorIS2_EEE6secondB7v160006Ev, symObjAddr: 0x8870, symBinAddr: 0x10002FF60, symSize: 0x28 }
  - { offsetInCU: 0xFF9A, offset: 0x4698E, size: 0x8, addend: 0x0, symName: __ZNSt3__122__compressed_pair_elemIRNS_9allocatorIP6ShaderEELi1ELb0EE5__getB7v160006Ev, symObjAddr: 0x8898, symBinAddr: 0x10002FF88, symSize: 0x18 }
  - { offsetInCU: 0xFFC0, offset: 0x469B4, size: 0x8, addend: 0x0, symName: __ZNSt3__117__compressed_pairIPP6ShaderRNS_9allocatorIS2_EEE5firstB7v160006Ev, symObjAddr: 0x88B0, symBinAddr: 0x10002FFA0, symSize: 0x24 }
  - { offsetInCU: 0xFFE6, offset: 0x469DA, size: 0x8, addend: 0x0, symName: __ZNSt3__116reverse_iteratorIPP6ShaderEC1B7v160006ES3_, symObjAddr: 0x894C, symBinAddr: 0x10003003C, symSize: 0x34 }
  - { offsetInCU: 0x1001E, offset: 0x46A12, size: 0x8, addend: 0x0, symName: __ZNKSt3__116reverse_iteratorIPP6ShaderE4baseB7v160006Ev, symObjAddr: 0x8980, symBinAddr: 0x100030070, symSize: 0x18 }
  - { offsetInCU: 0x10044, offset: 0x46A38, size: 0x8, addend: 0x0, symName: __ZNKSt3__16vectorIP6ShaderNS_9allocatorIS2_EEE14__annotate_newB7v160006Em, symObjAddr: 0x89D4, symBinAddr: 0x1000300C4, symSize: 0xAC }
  - { offsetInCU: 0x10093, offset: 0x46A87, size: 0x8, addend: 0x0, symName: __ZNKSt3__111__move_loopINS_17_ClassicAlgPolicyEEclB7v160006INS_16reverse_iteratorIPP6ShaderEES8_S8_EENS_4pairIT_T1_EESA_T0_SB_, symObjAddr: 0x8D80, symBinAddr: 0x100030470, symSize: 0xA0 }
  - { offsetInCU: 0x10104, offset: 0x46AF8, size: 0x8, addend: 0x0, symName: __ZNSt3__18_IterOpsINS_17_ClassicAlgPolicyEE11__iter_moveB7v160006IRNS_16reverse_iteratorIPP6ShaderEEEENS_9enable_ifIXsr12is_referenceIDTdeclsr3stdE7declvalIRT_EEEEE5valueEDTclsr3stdE4movedeclsr3stdE7declvalISC_EEEEE4typeEOSB_, symObjAddr: 0x8FB4, symBinAddr: 0x1000306A4, symSize: 0x28 }
  - { offsetInCU: 0x10130, offset: 0x46B24, size: 0x8, addend: 0x0, symName: __ZNKSt3__116reverse_iteratorIPP6ShaderEdeB7v160006Ev, symObjAddr: 0x8FDC, symBinAddr: 0x1000306CC, symSize: 0x28 }
  - { offsetInCU: 0x10164, offset: 0x46B58, size: 0x8, addend: 0x0, symName: __ZNSt3__116reverse_iteratorIPP6ShaderEppB7v160006Ev, symObjAddr: 0x9004, symBinAddr: 0x1000306F4, symSize: 0x20 }
  - { offsetInCU: 0x1018A, offset: 0x46B7E, size: 0x8, addend: 0x0, symName: __ZNSt3__18_IterOpsINS_17_ClassicAlgPolicyEE25__validate_iter_referenceB7v160006IRNS_16reverse_iteratorIPP6ShaderEEEEvv, symObjAddr: 0x9024, symBinAddr: 0x100030714, symSize: 0x4 }
  - { offsetInCU: 0x101A8, offset: 0x46B9C, size: 0x8, addend: 0x0, symName: __ZNSt3__118__unwrap_iter_implINS_16reverse_iteratorIPP6ShaderEELb0EE8__unwrapB7v160006ES5_, symObjAddr: 0x9028, symBinAddr: 0x100030718, symSize: 0x24 }
  - { offsetInCU: 0x101D1, offset: 0x46BC5, size: 0x8, addend: 0x0, symName: __ZNSt3__14pairINS_16reverse_iteratorIPP6ShaderEES5_EC1B7v160006IS5_S5_LPv0EEEOT_OT0_, symObjAddr: 0x904C, symBinAddr: 0x10003073C, symSize: 0x3C }
  - { offsetInCU: 0x1022F, offset: 0x46C23, size: 0x8, addend: 0x0, symName: __ZNSt3__14pairINS_16reverse_iteratorIPP6ShaderEES5_EC2B7v160006IS5_S5_LPv0EEEOT_OT0_, symObjAddr: 0x9088, symBinAddr: 0x100030778, symSize: 0x34 }
  - { offsetInCU: 0x1028D, offset: 0x46C81, size: 0x8, addend: 0x0, symName: __ZNSt3__118__unwrap_iter_implINS_16reverse_iteratorIPP6ShaderEELb0EE8__rewrapB7v160006ES5_S5_, symObjAddr: 0x90BC, symBinAddr: 0x1000307AC, symSize: 0x2C }
  - { offsetInCU: 0x102BB, offset: 0x46CAF, size: 0x8, addend: 0x0, symName: __ZNSt3__116reverse_iteratorIPP6ShaderEC2B7v160006ES3_, symObjAddr: 0x90E8, symBinAddr: 0x1000307D8, symSize: 0x28 }
  - { offsetInCU: 0x102F3, offset: 0x46CE7, size: 0x8, addend: 0x0, symName: __ZNSt3__114__split_bufferIP6ShaderRNS_9allocatorIS2_EEED2Ev, symObjAddr: 0x9110, symBinAddr: 0x100030800, symSize: 0x8C }
  - { offsetInCU: 0x1031F, offset: 0x46D13, size: 0x8, addend: 0x0, symName: __ZNSt3__114__split_bufferIP6ShaderRNS_9allocatorIS2_EEE5clearB7v160006Ev, symObjAddr: 0x919C, symBinAddr: 0x10003088C, symSize: 0x28 }
  - { offsetInCU: 0x10345, offset: 0x46D39, size: 0x8, addend: 0x0, symName: __ZNKSt3__114__split_bufferIP6ShaderRNS_9allocatorIS2_EEE8capacityB7v160006Ev, symObjAddr: 0x91C4, symBinAddr: 0x1000308B4, symSize: 0x40 }
  - { offsetInCU: 0x1036B, offset: 0x46D5F, size: 0x8, addend: 0x0, symName: __ZNSt3__114__split_bufferIP6ShaderRNS_9allocatorIS2_EEE17__destruct_at_endB7v160006EPS2_, symObjAddr: 0x9204, symBinAddr: 0x1000308F4, symSize: 0x2C }
  - { offsetInCU: 0x1039F, offset: 0x46D93, size: 0x8, addend: 0x0, symName: __ZNSt3__114__split_bufferIP6ShaderRNS_9allocatorIS2_EEE17__destruct_at_endB7v160006EPS2_NS_17integral_constantIbLb0EEE, symObjAddr: 0x9230, symBinAddr: 0x100030920, symSize: 0x80 }
  - { offsetInCU: 0x103E0, offset: 0x46DD4, size: 0x8, addend: 0x0, symName: __ZNKSt3__114__split_bufferIP6ShaderRNS_9allocatorIS2_EEE9__end_capB7v160006Ev, symObjAddr: 0x92B0, symBinAddr: 0x1000309A0, symSize: 0x28 }
  - { offsetInCU: 0x10406, offset: 0x46DFA, size: 0x8, addend: 0x0, symName: __ZNKSt3__117__compressed_pairIPP6ShaderRNS_9allocatorIS2_EEE5firstB7v160006Ev, symObjAddr: 0x92D8, symBinAddr: 0x1000309C8, symSize: 0x24 }
...
